
../out/STM32F767_Fire/Huawei_LiteOS.elf:     file format elf32-littlearm


Disassembly of section .text:

080001c8 <__text_start>:
 80001c8:	20003df0 	.word	0x20003df0
 80001cc:	2007fbff 	.word	0x2007fbff
 80001d0:	080243ac 	.word	0x080243ac
 80001d4:	20000000 	.word	0x20000000
 80001d8:	20000400 	.word	0x20000400
 80001dc:	080247ac 	.word	0x080247ac
 80001e0:	20000400 	.word	0x20000400
 80001e4:	20000724 	.word	0x20000724
 80001e8:	20000728 	.word	0x20000728
 80001ec:	200037ec 	.word	0x200037ec

080001f0 <__LOS_HEAP_ADDR_START__>:
 80001f0:	20003df0 	.word	0x20003df0

080001f4 <__LOS_HEAP_ADDR_END__>:
 80001f4:	2007fbff 	.word	0x2007fbff

080001f8 <__aeabi_drsub>:
 80001f8:	f081 4100 	eor.w	r1, r1, #2147483648	; 0x80000000
 80001fc:	e002      	b.n	8000204 <__adddf3>
 80001fe:	bf00      	nop

08000200 <__aeabi_dsub>:
 8000200:	f083 4300 	eor.w	r3, r3, #2147483648	; 0x80000000

08000204 <__adddf3>:
 8000204:	b530      	push	{r4, r5, lr}
 8000206:	ea4f 0441 	mov.w	r4, r1, lsl #1
 800020a:	ea4f 0543 	mov.w	r5, r3, lsl #1
 800020e:	ea94 0f05 	teq	r4, r5
 8000212:	bf08      	it	eq
 8000214:	ea90 0f02 	teqeq	r0, r2
 8000218:	bf1f      	itttt	ne
 800021a:	ea54 0c00 	orrsne.w	ip, r4, r0
 800021e:	ea55 0c02 	orrsne.w	ip, r5, r2
 8000222:	ea7f 5c64 	mvnsne.w	ip, r4, asr #21
 8000226:	ea7f 5c65 	mvnsne.w	ip, r5, asr #21
 800022a:	f000 80e2 	beq.w	80003f2 <__adddf3+0x1ee>
 800022e:	ea4f 5454 	mov.w	r4, r4, lsr #21
 8000232:	ebd4 5555 	rsbs	r5, r4, r5, lsr #21
 8000236:	bfb8      	it	lt
 8000238:	426d      	neglt	r5, r5
 800023a:	dd0c      	ble.n	8000256 <__adddf3+0x52>
 800023c:	442c      	add	r4, r5
 800023e:	ea80 0202 	eor.w	r2, r0, r2
 8000242:	ea81 0303 	eor.w	r3, r1, r3
 8000246:	ea82 0000 	eor.w	r0, r2, r0
 800024a:	ea83 0101 	eor.w	r1, r3, r1
 800024e:	ea80 0202 	eor.w	r2, r0, r2
 8000252:	ea81 0303 	eor.w	r3, r1, r3
 8000256:	2d36      	cmp	r5, #54	; 0x36
 8000258:	bf88      	it	hi
 800025a:	bd30      	pophi	{r4, r5, pc}
 800025c:	f011 4f00 	tst.w	r1, #2147483648	; 0x80000000
 8000260:	ea4f 3101 	mov.w	r1, r1, lsl #12
 8000264:	f44f 1c80 	mov.w	ip, #1048576	; 0x100000
 8000268:	ea4c 3111 	orr.w	r1, ip, r1, lsr #12
 800026c:	d002      	beq.n	8000274 <__adddf3+0x70>
 800026e:	4240      	negs	r0, r0
 8000270:	eb61 0141 	sbc.w	r1, r1, r1, lsl #1
 8000274:	f013 4f00 	tst.w	r3, #2147483648	; 0x80000000
 8000278:	ea4f 3303 	mov.w	r3, r3, lsl #12
 800027c:	ea4c 3313 	orr.w	r3, ip, r3, lsr #12
 8000280:	d002      	beq.n	8000288 <__adddf3+0x84>
 8000282:	4252      	negs	r2, r2
 8000284:	eb63 0343 	sbc.w	r3, r3, r3, lsl #1
 8000288:	ea94 0f05 	teq	r4, r5
 800028c:	f000 80a7 	beq.w	80003de <__adddf3+0x1da>
 8000290:	f1a4 0401 	sub.w	r4, r4, #1
 8000294:	f1d5 0e20 	rsbs	lr, r5, #32
 8000298:	db0d      	blt.n	80002b6 <__adddf3+0xb2>
 800029a:	fa02 fc0e 	lsl.w	ip, r2, lr
 800029e:	fa22 f205 	lsr.w	r2, r2, r5
 80002a2:	1880      	adds	r0, r0, r2
 80002a4:	f141 0100 	adc.w	r1, r1, #0
 80002a8:	fa03 f20e 	lsl.w	r2, r3, lr
 80002ac:	1880      	adds	r0, r0, r2
 80002ae:	fa43 f305 	asr.w	r3, r3, r5
 80002b2:	4159      	adcs	r1, r3
 80002b4:	e00e      	b.n	80002d4 <__adddf3+0xd0>
 80002b6:	f1a5 0520 	sub.w	r5, r5, #32
 80002ba:	f10e 0e20 	add.w	lr, lr, #32
 80002be:	2a01      	cmp	r2, #1
 80002c0:	fa03 fc0e 	lsl.w	ip, r3, lr
 80002c4:	bf28      	it	cs
 80002c6:	f04c 0c02 	orrcs.w	ip, ip, #2
 80002ca:	fa43 f305 	asr.w	r3, r3, r5
 80002ce:	18c0      	adds	r0, r0, r3
 80002d0:	eb51 71e3 	adcs.w	r1, r1, r3, asr #31
 80002d4:	f001 4500 	and.w	r5, r1, #2147483648	; 0x80000000
 80002d8:	d507      	bpl.n	80002ea <__adddf3+0xe6>
 80002da:	f04f 0e00 	mov.w	lr, #0
 80002de:	f1dc 0c00 	rsbs	ip, ip, #0
 80002e2:	eb7e 0000 	sbcs.w	r0, lr, r0
 80002e6:	eb6e 0101 	sbc.w	r1, lr, r1
 80002ea:	f5b1 1f80 	cmp.w	r1, #1048576	; 0x100000
 80002ee:	d31b      	bcc.n	8000328 <__adddf3+0x124>
 80002f0:	f5b1 1f00 	cmp.w	r1, #2097152	; 0x200000
 80002f4:	d30c      	bcc.n	8000310 <__adddf3+0x10c>
 80002f6:	0849      	lsrs	r1, r1, #1
 80002f8:	ea5f 0030 	movs.w	r0, r0, rrx
 80002fc:	ea4f 0c3c 	mov.w	ip, ip, rrx
 8000300:	f104 0401 	add.w	r4, r4, #1
 8000304:	ea4f 5244 	mov.w	r2, r4, lsl #21
 8000308:	f512 0f80 	cmn.w	r2, #4194304	; 0x400000
 800030c:	f080 809a 	bcs.w	8000444 <__adddf3+0x240>
 8000310:	f1bc 4f00 	cmp.w	ip, #2147483648	; 0x80000000
 8000314:	bf08      	it	eq
 8000316:	ea5f 0c50 	movseq.w	ip, r0, lsr #1
 800031a:	f150 0000 	adcs.w	r0, r0, #0
 800031e:	eb41 5104 	adc.w	r1, r1, r4, lsl #20
 8000322:	ea41 0105 	orr.w	r1, r1, r5
 8000326:	bd30      	pop	{r4, r5, pc}
 8000328:	ea5f 0c4c 	movs.w	ip, ip, lsl #1
 800032c:	4140      	adcs	r0, r0
 800032e:	eb41 0101 	adc.w	r1, r1, r1
 8000332:	3c01      	subs	r4, #1
 8000334:	bf28      	it	cs
 8000336:	f5b1 1f80 	cmpcs.w	r1, #1048576	; 0x100000
 800033a:	d2e9      	bcs.n	8000310 <__adddf3+0x10c>
 800033c:	f091 0f00 	teq	r1, #0
 8000340:	bf04      	itt	eq
 8000342:	4601      	moveq	r1, r0
 8000344:	2000      	moveq	r0, #0
 8000346:	fab1 f381 	clz	r3, r1
 800034a:	bf08      	it	eq
 800034c:	3320      	addeq	r3, #32
 800034e:	f1a3 030b 	sub.w	r3, r3, #11
 8000352:	f1b3 0220 	subs.w	r2, r3, #32
 8000356:	da0c      	bge.n	8000372 <__adddf3+0x16e>
 8000358:	320c      	adds	r2, #12
 800035a:	dd08      	ble.n	800036e <__adddf3+0x16a>
 800035c:	f102 0c14 	add.w	ip, r2, #20
 8000360:	f1c2 020c 	rsb	r2, r2, #12
 8000364:	fa01 f00c 	lsl.w	r0, r1, ip
 8000368:	fa21 f102 	lsr.w	r1, r1, r2
 800036c:	e00c      	b.n	8000388 <__adddf3+0x184>
 800036e:	f102 0214 	add.w	r2, r2, #20
 8000372:	bfd8      	it	le
 8000374:	f1c2 0c20 	rsble	ip, r2, #32
 8000378:	fa01 f102 	lsl.w	r1, r1, r2
 800037c:	fa20 fc0c 	lsr.w	ip, r0, ip
 8000380:	bfdc      	itt	le
 8000382:	ea41 010c 	orrle.w	r1, r1, ip
 8000386:	4090      	lslle	r0, r2
 8000388:	1ae4      	subs	r4, r4, r3
 800038a:	bfa2      	ittt	ge
 800038c:	eb01 5104 	addge.w	r1, r1, r4, lsl #20
 8000390:	4329      	orrge	r1, r5
 8000392:	bd30      	popge	{r4, r5, pc}
 8000394:	ea6f 0404 	mvn.w	r4, r4
 8000398:	3c1f      	subs	r4, #31
 800039a:	da1c      	bge.n	80003d6 <__adddf3+0x1d2>
 800039c:	340c      	adds	r4, #12
 800039e:	dc0e      	bgt.n	80003be <__adddf3+0x1ba>
 80003a0:	f104 0414 	add.w	r4, r4, #20
 80003a4:	f1c4 0220 	rsb	r2, r4, #32
 80003a8:	fa20 f004 	lsr.w	r0, r0, r4
 80003ac:	fa01 f302 	lsl.w	r3, r1, r2
 80003b0:	ea40 0003 	orr.w	r0, r0, r3
 80003b4:	fa21 f304 	lsr.w	r3, r1, r4
 80003b8:	ea45 0103 	orr.w	r1, r5, r3
 80003bc:	bd30      	pop	{r4, r5, pc}
 80003be:	f1c4 040c 	rsb	r4, r4, #12
 80003c2:	f1c4 0220 	rsb	r2, r4, #32
 80003c6:	fa20 f002 	lsr.w	r0, r0, r2
 80003ca:	fa01 f304 	lsl.w	r3, r1, r4
 80003ce:	ea40 0003 	orr.w	r0, r0, r3
 80003d2:	4629      	mov	r1, r5
 80003d4:	bd30      	pop	{r4, r5, pc}
 80003d6:	fa21 f004 	lsr.w	r0, r1, r4
 80003da:	4629      	mov	r1, r5
 80003dc:	bd30      	pop	{r4, r5, pc}
 80003de:	f094 0f00 	teq	r4, #0
 80003e2:	f483 1380 	eor.w	r3, r3, #1048576	; 0x100000
 80003e6:	bf06      	itte	eq
 80003e8:	f481 1180 	eoreq.w	r1, r1, #1048576	; 0x100000
 80003ec:	3401      	addeq	r4, #1
 80003ee:	3d01      	subne	r5, #1
 80003f0:	e74e      	b.n	8000290 <__adddf3+0x8c>
 80003f2:	ea7f 5c64 	mvns.w	ip, r4, asr #21
 80003f6:	bf18      	it	ne
 80003f8:	ea7f 5c65 	mvnsne.w	ip, r5, asr #21
 80003fc:	d029      	beq.n	8000452 <__adddf3+0x24e>
 80003fe:	ea94 0f05 	teq	r4, r5
 8000402:	bf08      	it	eq
 8000404:	ea90 0f02 	teqeq	r0, r2
 8000408:	d005      	beq.n	8000416 <__adddf3+0x212>
 800040a:	ea54 0c00 	orrs.w	ip, r4, r0
 800040e:	bf04      	itt	eq
 8000410:	4619      	moveq	r1, r3
 8000412:	4610      	moveq	r0, r2
 8000414:	bd30      	pop	{r4, r5, pc}
 8000416:	ea91 0f03 	teq	r1, r3
 800041a:	bf1e      	ittt	ne
 800041c:	2100      	movne	r1, #0
 800041e:	2000      	movne	r0, #0
 8000420:	bd30      	popne	{r4, r5, pc}
 8000422:	ea5f 5c54 	movs.w	ip, r4, lsr #21
 8000426:	d105      	bne.n	8000434 <__adddf3+0x230>
 8000428:	0040      	lsls	r0, r0, #1
 800042a:	4149      	adcs	r1, r1
 800042c:	bf28      	it	cs
 800042e:	f041 4100 	orrcs.w	r1, r1, #2147483648	; 0x80000000
 8000432:	bd30      	pop	{r4, r5, pc}
 8000434:	f514 0480 	adds.w	r4, r4, #4194304	; 0x400000
 8000438:	bf3c      	itt	cc
 800043a:	f501 1180 	addcc.w	r1, r1, #1048576	; 0x100000
 800043e:	bd30      	popcc	{r4, r5, pc}
 8000440:	f001 4500 	and.w	r5, r1, #2147483648	; 0x80000000
 8000444:	f045 41fe 	orr.w	r1, r5, #2130706432	; 0x7f000000
 8000448:	f441 0170 	orr.w	r1, r1, #15728640	; 0xf00000
 800044c:	f04f 0000 	mov.w	r0, #0
 8000450:	bd30      	pop	{r4, r5, pc}
 8000452:	ea7f 5c64 	mvns.w	ip, r4, asr #21
 8000456:	bf1a      	itte	ne
 8000458:	4619      	movne	r1, r3
 800045a:	4610      	movne	r0, r2
 800045c:	ea7f 5c65 	mvnseq.w	ip, r5, asr #21
 8000460:	bf1c      	itt	ne
 8000462:	460b      	movne	r3, r1
 8000464:	4602      	movne	r2, r0
 8000466:	ea50 3401 	orrs.w	r4, r0, r1, lsl #12
 800046a:	bf06      	itte	eq
 800046c:	ea52 3503 	orrseq.w	r5, r2, r3, lsl #12
 8000470:	ea91 0f03 	teqeq	r1, r3
 8000474:	f441 2100 	orrne.w	r1, r1, #524288	; 0x80000
 8000478:	bd30      	pop	{r4, r5, pc}
 800047a:	bf00      	nop

0800047c <__aeabi_ui2d>:
 800047c:	f090 0f00 	teq	r0, #0
 8000480:	bf04      	itt	eq
 8000482:	2100      	moveq	r1, #0
 8000484:	4770      	bxeq	lr
 8000486:	b530      	push	{r4, r5, lr}
 8000488:	f44f 6480 	mov.w	r4, #1024	; 0x400
 800048c:	f104 0432 	add.w	r4, r4, #50	; 0x32
 8000490:	f04f 0500 	mov.w	r5, #0
 8000494:	f04f 0100 	mov.w	r1, #0
 8000498:	e750      	b.n	800033c <__adddf3+0x138>
 800049a:	bf00      	nop

0800049c <__aeabi_i2d>:
 800049c:	f090 0f00 	teq	r0, #0
 80004a0:	bf04      	itt	eq
 80004a2:	2100      	moveq	r1, #0
 80004a4:	4770      	bxeq	lr
 80004a6:	b530      	push	{r4, r5, lr}
 80004a8:	f44f 6480 	mov.w	r4, #1024	; 0x400
 80004ac:	f104 0432 	add.w	r4, r4, #50	; 0x32
 80004b0:	f010 4500 	ands.w	r5, r0, #2147483648	; 0x80000000
 80004b4:	bf48      	it	mi
 80004b6:	4240      	negmi	r0, r0
 80004b8:	f04f 0100 	mov.w	r1, #0
 80004bc:	e73e      	b.n	800033c <__adddf3+0x138>
 80004be:	bf00      	nop

080004c0 <__aeabi_f2d>:
 80004c0:	0042      	lsls	r2, r0, #1
 80004c2:	ea4f 01e2 	mov.w	r1, r2, asr #3
 80004c6:	ea4f 0131 	mov.w	r1, r1, rrx
 80004ca:	ea4f 7002 	mov.w	r0, r2, lsl #28
 80004ce:	bf1f      	itttt	ne
 80004d0:	f012 437f 	andsne.w	r3, r2, #4278190080	; 0xff000000
 80004d4:	f093 4f7f 	teqne	r3, #4278190080	; 0xff000000
 80004d8:	f081 5160 	eorne.w	r1, r1, #939524096	; 0x38000000
 80004dc:	4770      	bxne	lr
 80004de:	f032 427f 	bics.w	r2, r2, #4278190080	; 0xff000000
 80004e2:	bf08      	it	eq
 80004e4:	4770      	bxeq	lr
 80004e6:	f093 4f7f 	teq	r3, #4278190080	; 0xff000000
 80004ea:	bf04      	itt	eq
 80004ec:	f441 2100 	orreq.w	r1, r1, #524288	; 0x80000
 80004f0:	4770      	bxeq	lr
 80004f2:	b530      	push	{r4, r5, lr}
 80004f4:	f44f 7460 	mov.w	r4, #896	; 0x380
 80004f8:	f001 4500 	and.w	r5, r1, #2147483648	; 0x80000000
 80004fc:	f021 4100 	bic.w	r1, r1, #2147483648	; 0x80000000
 8000500:	e71c      	b.n	800033c <__adddf3+0x138>
 8000502:	bf00      	nop

08000504 <__aeabi_ul2d>:
 8000504:	ea50 0201 	orrs.w	r2, r0, r1
 8000508:	bf08      	it	eq
 800050a:	4770      	bxeq	lr
 800050c:	b530      	push	{r4, r5, lr}
 800050e:	f04f 0500 	mov.w	r5, #0
 8000512:	e00a      	b.n	800052a <__aeabi_l2d+0x16>

08000514 <__aeabi_l2d>:
 8000514:	ea50 0201 	orrs.w	r2, r0, r1
 8000518:	bf08      	it	eq
 800051a:	4770      	bxeq	lr
 800051c:	b530      	push	{r4, r5, lr}
 800051e:	f011 4500 	ands.w	r5, r1, #2147483648	; 0x80000000
 8000522:	d502      	bpl.n	800052a <__aeabi_l2d+0x16>
 8000524:	4240      	negs	r0, r0
 8000526:	eb61 0141 	sbc.w	r1, r1, r1, lsl #1
 800052a:	f44f 6480 	mov.w	r4, #1024	; 0x400
 800052e:	f104 0432 	add.w	r4, r4, #50	; 0x32
 8000532:	ea5f 5c91 	movs.w	ip, r1, lsr #22
 8000536:	f43f aed8 	beq.w	80002ea <__adddf3+0xe6>
 800053a:	f04f 0203 	mov.w	r2, #3
 800053e:	ea5f 0cdc 	movs.w	ip, ip, lsr #3
 8000542:	bf18      	it	ne
 8000544:	3203      	addne	r2, #3
 8000546:	ea5f 0cdc 	movs.w	ip, ip, lsr #3
 800054a:	bf18      	it	ne
 800054c:	3203      	addne	r2, #3
 800054e:	eb02 02dc 	add.w	r2, r2, ip, lsr #3
 8000552:	f1c2 0320 	rsb	r3, r2, #32
 8000556:	fa00 fc03 	lsl.w	ip, r0, r3
 800055a:	fa20 f002 	lsr.w	r0, r0, r2
 800055e:	fa01 fe03 	lsl.w	lr, r1, r3
 8000562:	ea40 000e 	orr.w	r0, r0, lr
 8000566:	fa21 f102 	lsr.w	r1, r1, r2
 800056a:	4414      	add	r4, r2
 800056c:	e6bd      	b.n	80002ea <__adddf3+0xe6>
 800056e:	bf00      	nop

08000570 <__aeabi_dmul>:
 8000570:	b570      	push	{r4, r5, r6, lr}
 8000572:	f04f 0cff 	mov.w	ip, #255	; 0xff
 8000576:	f44c 6ce0 	orr.w	ip, ip, #1792	; 0x700
 800057a:	ea1c 5411 	ands.w	r4, ip, r1, lsr #20
 800057e:	bf1d      	ittte	ne
 8000580:	ea1c 5513 	andsne.w	r5, ip, r3, lsr #20
 8000584:	ea94 0f0c 	teqne	r4, ip
 8000588:	ea95 0f0c 	teqne	r5, ip
 800058c:	f000 f8de 	bleq	800074c <__aeabi_dmul+0x1dc>
 8000590:	442c      	add	r4, r5
 8000592:	ea81 0603 	eor.w	r6, r1, r3
 8000596:	ea21 514c 	bic.w	r1, r1, ip, lsl #21
 800059a:	ea23 534c 	bic.w	r3, r3, ip, lsl #21
 800059e:	ea50 3501 	orrs.w	r5, r0, r1, lsl #12
 80005a2:	bf18      	it	ne
 80005a4:	ea52 3503 	orrsne.w	r5, r2, r3, lsl #12
 80005a8:	f441 1180 	orr.w	r1, r1, #1048576	; 0x100000
 80005ac:	f443 1380 	orr.w	r3, r3, #1048576	; 0x100000
 80005b0:	d038      	beq.n	8000624 <__aeabi_dmul+0xb4>
 80005b2:	fba0 ce02 	umull	ip, lr, r0, r2
 80005b6:	f04f 0500 	mov.w	r5, #0
 80005ba:	fbe1 e502 	umlal	lr, r5, r1, r2
 80005be:	f006 4200 	and.w	r2, r6, #2147483648	; 0x80000000
 80005c2:	fbe0 e503 	umlal	lr, r5, r0, r3
 80005c6:	f04f 0600 	mov.w	r6, #0
 80005ca:	fbe1 5603 	umlal	r5, r6, r1, r3
 80005ce:	f09c 0f00 	teq	ip, #0
 80005d2:	bf18      	it	ne
 80005d4:	f04e 0e01 	orrne.w	lr, lr, #1
 80005d8:	f1a4 04ff 	sub.w	r4, r4, #255	; 0xff
 80005dc:	f5b6 7f00 	cmp.w	r6, #512	; 0x200
 80005e0:	f564 7440 	sbc.w	r4, r4, #768	; 0x300
 80005e4:	d204      	bcs.n	80005f0 <__aeabi_dmul+0x80>
 80005e6:	ea5f 0e4e 	movs.w	lr, lr, lsl #1
 80005ea:	416d      	adcs	r5, r5
 80005ec:	eb46 0606 	adc.w	r6, r6, r6
 80005f0:	ea42 21c6 	orr.w	r1, r2, r6, lsl #11
 80005f4:	ea41 5155 	orr.w	r1, r1, r5, lsr #21
 80005f8:	ea4f 20c5 	mov.w	r0, r5, lsl #11
 80005fc:	ea40 505e 	orr.w	r0, r0, lr, lsr #21
 8000600:	ea4f 2ece 	mov.w	lr, lr, lsl #11
 8000604:	f1b4 0cfd 	subs.w	ip, r4, #253	; 0xfd
 8000608:	bf88      	it	hi
 800060a:	f5bc 6fe0 	cmphi.w	ip, #1792	; 0x700
 800060e:	d81e      	bhi.n	800064e <__aeabi_dmul+0xde>
 8000610:	f1be 4f00 	cmp.w	lr, #2147483648	; 0x80000000
 8000614:	bf08      	it	eq
 8000616:	ea5f 0e50 	movseq.w	lr, r0, lsr #1
 800061a:	f150 0000 	adcs.w	r0, r0, #0
 800061e:	eb41 5104 	adc.w	r1, r1, r4, lsl #20
 8000622:	bd70      	pop	{r4, r5, r6, pc}
 8000624:	f006 4600 	and.w	r6, r6, #2147483648	; 0x80000000
 8000628:	ea46 0101 	orr.w	r1, r6, r1
 800062c:	ea40 0002 	orr.w	r0, r0, r2
 8000630:	ea81 0103 	eor.w	r1, r1, r3
 8000634:	ebb4 045c 	subs.w	r4, r4, ip, lsr #1
 8000638:	bfc2      	ittt	gt
 800063a:	ebd4 050c 	rsbsgt	r5, r4, ip
 800063e:	ea41 5104 	orrgt.w	r1, r1, r4, lsl #20
 8000642:	bd70      	popgt	{r4, r5, r6, pc}
 8000644:	f441 1180 	orr.w	r1, r1, #1048576	; 0x100000
 8000648:	f04f 0e00 	mov.w	lr, #0
 800064c:	3c01      	subs	r4, #1
 800064e:	f300 80ab 	bgt.w	80007a8 <__aeabi_dmul+0x238>
 8000652:	f114 0f36 	cmn.w	r4, #54	; 0x36
 8000656:	bfde      	ittt	le
 8000658:	2000      	movle	r0, #0
 800065a:	f001 4100 	andle.w	r1, r1, #2147483648	; 0x80000000
 800065e:	bd70      	pople	{r4, r5, r6, pc}
 8000660:	f1c4 0400 	rsb	r4, r4, #0
 8000664:	3c20      	subs	r4, #32
 8000666:	da35      	bge.n	80006d4 <__aeabi_dmul+0x164>
 8000668:	340c      	adds	r4, #12
 800066a:	dc1b      	bgt.n	80006a4 <__aeabi_dmul+0x134>
 800066c:	f104 0414 	add.w	r4, r4, #20
 8000670:	f1c4 0520 	rsb	r5, r4, #32
 8000674:	fa00 f305 	lsl.w	r3, r0, r5
 8000678:	fa20 f004 	lsr.w	r0, r0, r4
 800067c:	fa01 f205 	lsl.w	r2, r1, r5
 8000680:	ea40 0002 	orr.w	r0, r0, r2
 8000684:	f001 4200 	and.w	r2, r1, #2147483648	; 0x80000000
 8000688:	f021 4100 	bic.w	r1, r1, #2147483648	; 0x80000000
 800068c:	eb10 70d3 	adds.w	r0, r0, r3, lsr #31
 8000690:	fa21 f604 	lsr.w	r6, r1, r4
 8000694:	eb42 0106 	adc.w	r1, r2, r6
 8000698:	ea5e 0e43 	orrs.w	lr, lr, r3, lsl #1
 800069c:	bf08      	it	eq
 800069e:	ea20 70d3 	biceq.w	r0, r0, r3, lsr #31
 80006a2:	bd70      	pop	{r4, r5, r6, pc}
 80006a4:	f1c4 040c 	rsb	r4, r4, #12
 80006a8:	f1c4 0520 	rsb	r5, r4, #32
 80006ac:	fa00 f304 	lsl.w	r3, r0, r4
 80006b0:	fa20 f005 	lsr.w	r0, r0, r5
 80006b4:	fa01 f204 	lsl.w	r2, r1, r4
 80006b8:	ea40 0002 	orr.w	r0, r0, r2
 80006bc:	f001 4100 	and.w	r1, r1, #2147483648	; 0x80000000
 80006c0:	eb10 70d3 	adds.w	r0, r0, r3, lsr #31
 80006c4:	f141 0100 	adc.w	r1, r1, #0
 80006c8:	ea5e 0e43 	orrs.w	lr, lr, r3, lsl #1
 80006cc:	bf08      	it	eq
 80006ce:	ea20 70d3 	biceq.w	r0, r0, r3, lsr #31
 80006d2:	bd70      	pop	{r4, r5, r6, pc}
 80006d4:	f1c4 0520 	rsb	r5, r4, #32
 80006d8:	fa00 f205 	lsl.w	r2, r0, r5
 80006dc:	ea4e 0e02 	orr.w	lr, lr, r2
 80006e0:	fa20 f304 	lsr.w	r3, r0, r4
 80006e4:	fa01 f205 	lsl.w	r2, r1, r5
 80006e8:	ea43 0302 	orr.w	r3, r3, r2
 80006ec:	fa21 f004 	lsr.w	r0, r1, r4
 80006f0:	f001 4100 	and.w	r1, r1, #2147483648	; 0x80000000
 80006f4:	fa21 f204 	lsr.w	r2, r1, r4
 80006f8:	ea20 0002 	bic.w	r0, r0, r2
 80006fc:	eb00 70d3 	add.w	r0, r0, r3, lsr #31
 8000700:	ea5e 0e43 	orrs.w	lr, lr, r3, lsl #1
 8000704:	bf08      	it	eq
 8000706:	ea20 70d3 	biceq.w	r0, r0, r3, lsr #31
 800070a:	bd70      	pop	{r4, r5, r6, pc}
 800070c:	f094 0f00 	teq	r4, #0
 8000710:	d10f      	bne.n	8000732 <__aeabi_dmul+0x1c2>
 8000712:	f001 4600 	and.w	r6, r1, #2147483648	; 0x80000000
 8000716:	0040      	lsls	r0, r0, #1
 8000718:	eb41 0101 	adc.w	r1, r1, r1
 800071c:	f411 1f80 	tst.w	r1, #1048576	; 0x100000
 8000720:	bf08      	it	eq
 8000722:	3c01      	subeq	r4, #1
 8000724:	d0f7      	beq.n	8000716 <__aeabi_dmul+0x1a6>
 8000726:	ea41 0106 	orr.w	r1, r1, r6
 800072a:	f095 0f00 	teq	r5, #0
 800072e:	bf18      	it	ne
 8000730:	4770      	bxne	lr
 8000732:	f003 4600 	and.w	r6, r3, #2147483648	; 0x80000000
 8000736:	0052      	lsls	r2, r2, #1
 8000738:	eb43 0303 	adc.w	r3, r3, r3
 800073c:	f413 1f80 	tst.w	r3, #1048576	; 0x100000
 8000740:	bf08      	it	eq
 8000742:	3d01      	subeq	r5, #1
 8000744:	d0f7      	beq.n	8000736 <__aeabi_dmul+0x1c6>
 8000746:	ea43 0306 	orr.w	r3, r3, r6
 800074a:	4770      	bx	lr
 800074c:	ea94 0f0c 	teq	r4, ip
 8000750:	ea0c 5513 	and.w	r5, ip, r3, lsr #20
 8000754:	bf18      	it	ne
 8000756:	ea95 0f0c 	teqne	r5, ip
 800075a:	d00c      	beq.n	8000776 <__aeabi_dmul+0x206>
 800075c:	ea50 0641 	orrs.w	r6, r0, r1, lsl #1
 8000760:	bf18      	it	ne
 8000762:	ea52 0643 	orrsne.w	r6, r2, r3, lsl #1
 8000766:	d1d1      	bne.n	800070c <__aeabi_dmul+0x19c>
 8000768:	ea81 0103 	eor.w	r1, r1, r3
 800076c:	f001 4100 	and.w	r1, r1, #2147483648	; 0x80000000
 8000770:	f04f 0000 	mov.w	r0, #0
 8000774:	bd70      	pop	{r4, r5, r6, pc}
 8000776:	ea50 0641 	orrs.w	r6, r0, r1, lsl #1
 800077a:	bf06      	itte	eq
 800077c:	4610      	moveq	r0, r2
 800077e:	4619      	moveq	r1, r3
 8000780:	ea52 0643 	orrsne.w	r6, r2, r3, lsl #1
 8000784:	d019      	beq.n	80007ba <__aeabi_dmul+0x24a>
 8000786:	ea94 0f0c 	teq	r4, ip
 800078a:	d102      	bne.n	8000792 <__aeabi_dmul+0x222>
 800078c:	ea50 3601 	orrs.w	r6, r0, r1, lsl #12
 8000790:	d113      	bne.n	80007ba <__aeabi_dmul+0x24a>
 8000792:	ea95 0f0c 	teq	r5, ip
 8000796:	d105      	bne.n	80007a4 <__aeabi_dmul+0x234>
 8000798:	ea52 3603 	orrs.w	r6, r2, r3, lsl #12
 800079c:	bf1c      	itt	ne
 800079e:	4610      	movne	r0, r2
 80007a0:	4619      	movne	r1, r3
 80007a2:	d10a      	bne.n	80007ba <__aeabi_dmul+0x24a>
 80007a4:	ea81 0103 	eor.w	r1, r1, r3
 80007a8:	f001 4100 	and.w	r1, r1, #2147483648	; 0x80000000
 80007ac:	f041 41fe 	orr.w	r1, r1, #2130706432	; 0x7f000000
 80007b0:	f441 0170 	orr.w	r1, r1, #15728640	; 0xf00000
 80007b4:	f04f 0000 	mov.w	r0, #0
 80007b8:	bd70      	pop	{r4, r5, r6, pc}
 80007ba:	f041 41fe 	orr.w	r1, r1, #2130706432	; 0x7f000000
 80007be:	f441 0178 	orr.w	r1, r1, #16252928	; 0xf80000
 80007c2:	bd70      	pop	{r4, r5, r6, pc}

080007c4 <__aeabi_ddiv>:
 80007c4:	b570      	push	{r4, r5, r6, lr}
 80007c6:	f04f 0cff 	mov.w	ip, #255	; 0xff
 80007ca:	f44c 6ce0 	orr.w	ip, ip, #1792	; 0x700
 80007ce:	ea1c 5411 	ands.w	r4, ip, r1, lsr #20
 80007d2:	bf1d      	ittte	ne
 80007d4:	ea1c 5513 	andsne.w	r5, ip, r3, lsr #20
 80007d8:	ea94 0f0c 	teqne	r4, ip
 80007dc:	ea95 0f0c 	teqne	r5, ip
 80007e0:	f000 f8a7 	bleq	8000932 <__aeabi_ddiv+0x16e>
 80007e4:	eba4 0405 	sub.w	r4, r4, r5
 80007e8:	ea81 0e03 	eor.w	lr, r1, r3
 80007ec:	ea52 3503 	orrs.w	r5, r2, r3, lsl #12
 80007f0:	ea4f 3101 	mov.w	r1, r1, lsl #12
 80007f4:	f000 8088 	beq.w	8000908 <__aeabi_ddiv+0x144>
 80007f8:	ea4f 3303 	mov.w	r3, r3, lsl #12
 80007fc:	f04f 5580 	mov.w	r5, #268435456	; 0x10000000
 8000800:	ea45 1313 	orr.w	r3, r5, r3, lsr #4
 8000804:	ea43 6312 	orr.w	r3, r3, r2, lsr #24
 8000808:	ea4f 2202 	mov.w	r2, r2, lsl #8
 800080c:	ea45 1511 	orr.w	r5, r5, r1, lsr #4
 8000810:	ea45 6510 	orr.w	r5, r5, r0, lsr #24
 8000814:	ea4f 2600 	mov.w	r6, r0, lsl #8
 8000818:	f00e 4100 	and.w	r1, lr, #2147483648	; 0x80000000
 800081c:	429d      	cmp	r5, r3
 800081e:	bf08      	it	eq
 8000820:	4296      	cmpeq	r6, r2
 8000822:	f144 04fd 	adc.w	r4, r4, #253	; 0xfd
 8000826:	f504 7440 	add.w	r4, r4, #768	; 0x300
 800082a:	d202      	bcs.n	8000832 <__aeabi_ddiv+0x6e>
 800082c:	085b      	lsrs	r3, r3, #1
 800082e:	ea4f 0232 	mov.w	r2, r2, rrx
 8000832:	1ab6      	subs	r6, r6, r2
 8000834:	eb65 0503 	sbc.w	r5, r5, r3
 8000838:	085b      	lsrs	r3, r3, #1
 800083a:	ea4f 0232 	mov.w	r2, r2, rrx
 800083e:	f44f 1080 	mov.w	r0, #1048576	; 0x100000
 8000842:	f44f 2c00 	mov.w	ip, #524288	; 0x80000
 8000846:	ebb6 0e02 	subs.w	lr, r6, r2
 800084a:	eb75 0e03 	sbcs.w	lr, r5, r3
 800084e:	bf22      	ittt	cs
 8000850:	1ab6      	subcs	r6, r6, r2
 8000852:	4675      	movcs	r5, lr
 8000854:	ea40 000c 	orrcs.w	r0, r0, ip
 8000858:	085b      	lsrs	r3, r3, #1
 800085a:	ea4f 0232 	mov.w	r2, r2, rrx
 800085e:	ebb6 0e02 	subs.w	lr, r6, r2
 8000862:	eb75 0e03 	sbcs.w	lr, r5, r3
 8000866:	bf22      	ittt	cs
 8000868:	1ab6      	subcs	r6, r6, r2
 800086a:	4675      	movcs	r5, lr
 800086c:	ea40 005c 	orrcs.w	r0, r0, ip, lsr #1
 8000870:	085b      	lsrs	r3, r3, #1
 8000872:	ea4f 0232 	mov.w	r2, r2, rrx
 8000876:	ebb6 0e02 	subs.w	lr, r6, r2
 800087a:	eb75 0e03 	sbcs.w	lr, r5, r3
 800087e:	bf22      	ittt	cs
 8000880:	1ab6      	subcs	r6, r6, r2
 8000882:	4675      	movcs	r5, lr
 8000884:	ea40 009c 	orrcs.w	r0, r0, ip, lsr #2
 8000888:	085b      	lsrs	r3, r3, #1
 800088a:	ea4f 0232 	mov.w	r2, r2, rrx
 800088e:	ebb6 0e02 	subs.w	lr, r6, r2
 8000892:	eb75 0e03 	sbcs.w	lr, r5, r3
 8000896:	bf22      	ittt	cs
 8000898:	1ab6      	subcs	r6, r6, r2
 800089a:	4675      	movcs	r5, lr
 800089c:	ea40 00dc 	orrcs.w	r0, r0, ip, lsr #3
 80008a0:	ea55 0e06 	orrs.w	lr, r5, r6
 80008a4:	d018      	beq.n	80008d8 <__aeabi_ddiv+0x114>
 80008a6:	ea4f 1505 	mov.w	r5, r5, lsl #4
 80008aa:	ea45 7516 	orr.w	r5, r5, r6, lsr #28
 80008ae:	ea4f 1606 	mov.w	r6, r6, lsl #4
 80008b2:	ea4f 03c3 	mov.w	r3, r3, lsl #3
 80008b6:	ea43 7352 	orr.w	r3, r3, r2, lsr #29
 80008ba:	ea4f 02c2 	mov.w	r2, r2, lsl #3
 80008be:	ea5f 1c1c 	movs.w	ip, ip, lsr #4
 80008c2:	d1c0      	bne.n	8000846 <__aeabi_ddiv+0x82>
 80008c4:	f411 1f80 	tst.w	r1, #1048576	; 0x100000
 80008c8:	d10b      	bne.n	80008e2 <__aeabi_ddiv+0x11e>
 80008ca:	ea41 0100 	orr.w	r1, r1, r0
 80008ce:	f04f 0000 	mov.w	r0, #0
 80008d2:	f04f 4c00 	mov.w	ip, #2147483648	; 0x80000000
 80008d6:	e7b6      	b.n	8000846 <__aeabi_ddiv+0x82>
 80008d8:	f411 1f80 	tst.w	r1, #1048576	; 0x100000
 80008dc:	bf04      	itt	eq
 80008de:	4301      	orreq	r1, r0
 80008e0:	2000      	moveq	r0, #0
 80008e2:	f1b4 0cfd 	subs.w	ip, r4, #253	; 0xfd
 80008e6:	bf88      	it	hi
 80008e8:	f5bc 6fe0 	cmphi.w	ip, #1792	; 0x700
 80008ec:	f63f aeaf 	bhi.w	800064e <__aeabi_dmul+0xde>
 80008f0:	ebb5 0c03 	subs.w	ip, r5, r3
 80008f4:	bf04      	itt	eq
 80008f6:	ebb6 0c02 	subseq.w	ip, r6, r2
 80008fa:	ea5f 0c50 	movseq.w	ip, r0, lsr #1
 80008fe:	f150 0000 	adcs.w	r0, r0, #0
 8000902:	eb41 5104 	adc.w	r1, r1, r4, lsl #20
 8000906:	bd70      	pop	{r4, r5, r6, pc}
 8000908:	f00e 4e00 	and.w	lr, lr, #2147483648	; 0x80000000
 800090c:	ea4e 3111 	orr.w	r1, lr, r1, lsr #12
 8000910:	eb14 045c 	adds.w	r4, r4, ip, lsr #1
 8000914:	bfc2      	ittt	gt
 8000916:	ebd4 050c 	rsbsgt	r5, r4, ip
 800091a:	ea41 5104 	orrgt.w	r1, r1, r4, lsl #20
 800091e:	bd70      	popgt	{r4, r5, r6, pc}
 8000920:	f441 1180 	orr.w	r1, r1, #1048576	; 0x100000
 8000924:	f04f 0e00 	mov.w	lr, #0
 8000928:	3c01      	subs	r4, #1
 800092a:	e690      	b.n	800064e <__aeabi_dmul+0xde>
 800092c:	ea45 0e06 	orr.w	lr, r5, r6
 8000930:	e68d      	b.n	800064e <__aeabi_dmul+0xde>
 8000932:	ea0c 5513 	and.w	r5, ip, r3, lsr #20
 8000936:	ea94 0f0c 	teq	r4, ip
 800093a:	bf08      	it	eq
 800093c:	ea95 0f0c 	teqeq	r5, ip
 8000940:	f43f af3b 	beq.w	80007ba <__aeabi_dmul+0x24a>
 8000944:	ea94 0f0c 	teq	r4, ip
 8000948:	d10a      	bne.n	8000960 <__aeabi_ddiv+0x19c>
 800094a:	ea50 3401 	orrs.w	r4, r0, r1, lsl #12
 800094e:	f47f af34 	bne.w	80007ba <__aeabi_dmul+0x24a>
 8000952:	ea95 0f0c 	teq	r5, ip
 8000956:	f47f af25 	bne.w	80007a4 <__aeabi_dmul+0x234>
 800095a:	4610      	mov	r0, r2
 800095c:	4619      	mov	r1, r3
 800095e:	e72c      	b.n	80007ba <__aeabi_dmul+0x24a>
 8000960:	ea95 0f0c 	teq	r5, ip
 8000964:	d106      	bne.n	8000974 <__aeabi_ddiv+0x1b0>
 8000966:	ea52 3503 	orrs.w	r5, r2, r3, lsl #12
 800096a:	f43f aefd 	beq.w	8000768 <__aeabi_dmul+0x1f8>
 800096e:	4610      	mov	r0, r2
 8000970:	4619      	mov	r1, r3
 8000972:	e722      	b.n	80007ba <__aeabi_dmul+0x24a>
 8000974:	ea50 0641 	orrs.w	r6, r0, r1, lsl #1
 8000978:	bf18      	it	ne
 800097a:	ea52 0643 	orrsne.w	r6, r2, r3, lsl #1
 800097e:	f47f aec5 	bne.w	800070c <__aeabi_dmul+0x19c>
 8000982:	ea50 0441 	orrs.w	r4, r0, r1, lsl #1
 8000986:	f47f af0d 	bne.w	80007a4 <__aeabi_dmul+0x234>
 800098a:	ea52 0543 	orrs.w	r5, r2, r3, lsl #1
 800098e:	f47f aeeb 	bne.w	8000768 <__aeabi_dmul+0x1f8>
 8000992:	e712      	b.n	80007ba <__aeabi_dmul+0x24a>

08000994 <__aeabi_uldivmod>:
 8000994:	b953      	cbnz	r3, 80009ac <__aeabi_uldivmod+0x18>
 8000996:	b94a      	cbnz	r2, 80009ac <__aeabi_uldivmod+0x18>
 8000998:	2900      	cmp	r1, #0
 800099a:	bf08      	it	eq
 800099c:	2800      	cmpeq	r0, #0
 800099e:	bf1c      	itt	ne
 80009a0:	f04f 31ff 	movne.w	r1, #4294967295
 80009a4:	f04f 30ff 	movne.w	r0, #4294967295
 80009a8:	f000 b96e 	b.w	8000c88 <__aeabi_idiv0>
 80009ac:	f1ad 0c08 	sub.w	ip, sp, #8
 80009b0:	e96d ce04 	strd	ip, lr, [sp, #-16]!
 80009b4:	f000 f806 	bl	80009c4 <__udivmoddi4>
 80009b8:	f8dd e004 	ldr.w	lr, [sp, #4]
 80009bc:	e9dd 2302 	ldrd	r2, r3, [sp, #8]
 80009c0:	b004      	add	sp, #16
 80009c2:	4770      	bx	lr

080009c4 <__udivmoddi4>:
 80009c4:	e92d 47f0 	stmdb	sp!, {r4, r5, r6, r7, r8, r9, sl, lr}
 80009c8:	9d08      	ldr	r5, [sp, #32]
 80009ca:	4604      	mov	r4, r0
 80009cc:	468c      	mov	ip, r1
 80009ce:	2b00      	cmp	r3, #0
 80009d0:	f040 8083 	bne.w	8000ada <__udivmoddi4+0x116>
 80009d4:	428a      	cmp	r2, r1
 80009d6:	4617      	mov	r7, r2
 80009d8:	d947      	bls.n	8000a6a <__udivmoddi4+0xa6>
 80009da:	fab2 f282 	clz	r2, r2
 80009de:	b142      	cbz	r2, 80009f2 <__udivmoddi4+0x2e>
 80009e0:	f1c2 0020 	rsb	r0, r2, #32
 80009e4:	fa24 f000 	lsr.w	r0, r4, r0
 80009e8:	4091      	lsls	r1, r2
 80009ea:	4097      	lsls	r7, r2
 80009ec:	ea40 0c01 	orr.w	ip, r0, r1
 80009f0:	4094      	lsls	r4, r2
 80009f2:	ea4f 4817 	mov.w	r8, r7, lsr #16
 80009f6:	0c23      	lsrs	r3, r4, #16
 80009f8:	fbbc f6f8 	udiv	r6, ip, r8
 80009fc:	fa1f fe87 	uxth.w	lr, r7
 8000a00:	fb08 c116 	mls	r1, r8, r6, ip
 8000a04:	ea43 4301 	orr.w	r3, r3, r1, lsl #16
 8000a08:	fb06 f10e 	mul.w	r1, r6, lr
 8000a0c:	4299      	cmp	r1, r3
 8000a0e:	d909      	bls.n	8000a24 <__udivmoddi4+0x60>
 8000a10:	18fb      	adds	r3, r7, r3
 8000a12:	f106 30ff 	add.w	r0, r6, #4294967295
 8000a16:	f080 8119 	bcs.w	8000c4c <__udivmoddi4+0x288>
 8000a1a:	4299      	cmp	r1, r3
 8000a1c:	f240 8116 	bls.w	8000c4c <__udivmoddi4+0x288>
 8000a20:	3e02      	subs	r6, #2
 8000a22:	443b      	add	r3, r7
 8000a24:	1a5b      	subs	r3, r3, r1
 8000a26:	b2a4      	uxth	r4, r4
 8000a28:	fbb3 f0f8 	udiv	r0, r3, r8
 8000a2c:	fb08 3310 	mls	r3, r8, r0, r3
 8000a30:	ea44 4403 	orr.w	r4, r4, r3, lsl #16
 8000a34:	fb00 fe0e 	mul.w	lr, r0, lr
 8000a38:	45a6      	cmp	lr, r4
 8000a3a:	d909      	bls.n	8000a50 <__udivmoddi4+0x8c>
 8000a3c:	193c      	adds	r4, r7, r4
 8000a3e:	f100 33ff 	add.w	r3, r0, #4294967295
 8000a42:	f080 8105 	bcs.w	8000c50 <__udivmoddi4+0x28c>
 8000a46:	45a6      	cmp	lr, r4
 8000a48:	f240 8102 	bls.w	8000c50 <__udivmoddi4+0x28c>
 8000a4c:	3802      	subs	r0, #2
 8000a4e:	443c      	add	r4, r7
 8000a50:	ea40 4006 	orr.w	r0, r0, r6, lsl #16
 8000a54:	eba4 040e 	sub.w	r4, r4, lr
 8000a58:	2600      	movs	r6, #0
 8000a5a:	b11d      	cbz	r5, 8000a64 <__udivmoddi4+0xa0>
 8000a5c:	40d4      	lsrs	r4, r2
 8000a5e:	2300      	movs	r3, #0
 8000a60:	e9c5 4300 	strd	r4, r3, [r5]
 8000a64:	4631      	mov	r1, r6
 8000a66:	e8bd 87f0 	ldmia.w	sp!, {r4, r5, r6, r7, r8, r9, sl, pc}
 8000a6a:	b902      	cbnz	r2, 8000a6e <__udivmoddi4+0xaa>
 8000a6c:	deff      	udf	#255	; 0xff
 8000a6e:	fab2 f282 	clz	r2, r2
 8000a72:	2a00      	cmp	r2, #0
 8000a74:	d150      	bne.n	8000b18 <__udivmoddi4+0x154>
 8000a76:	1bcb      	subs	r3, r1, r7
 8000a78:	ea4f 4e17 	mov.w	lr, r7, lsr #16
 8000a7c:	fa1f f887 	uxth.w	r8, r7
 8000a80:	2601      	movs	r6, #1
 8000a82:	fbb3 fcfe 	udiv	ip, r3, lr
 8000a86:	0c21      	lsrs	r1, r4, #16
 8000a88:	fb0e 331c 	mls	r3, lr, ip, r3
 8000a8c:	ea41 4103 	orr.w	r1, r1, r3, lsl #16
 8000a90:	fb08 f30c 	mul.w	r3, r8, ip
 8000a94:	428b      	cmp	r3, r1
 8000a96:	d907      	bls.n	8000aa8 <__udivmoddi4+0xe4>
 8000a98:	1879      	adds	r1, r7, r1
 8000a9a:	f10c 30ff 	add.w	r0, ip, #4294967295
 8000a9e:	d202      	bcs.n	8000aa6 <__udivmoddi4+0xe2>
 8000aa0:	428b      	cmp	r3, r1
 8000aa2:	f200 80e9 	bhi.w	8000c78 <__udivmoddi4+0x2b4>
 8000aa6:	4684      	mov	ip, r0
 8000aa8:	1ac9      	subs	r1, r1, r3
 8000aaa:	b2a3      	uxth	r3, r4
 8000aac:	fbb1 f0fe 	udiv	r0, r1, lr
 8000ab0:	fb0e 1110 	mls	r1, lr, r0, r1
 8000ab4:	ea43 4401 	orr.w	r4, r3, r1, lsl #16
 8000ab8:	fb08 f800 	mul.w	r8, r8, r0
 8000abc:	45a0      	cmp	r8, r4
 8000abe:	d907      	bls.n	8000ad0 <__udivmoddi4+0x10c>
 8000ac0:	193c      	adds	r4, r7, r4
 8000ac2:	f100 33ff 	add.w	r3, r0, #4294967295
 8000ac6:	d202      	bcs.n	8000ace <__udivmoddi4+0x10a>
 8000ac8:	45a0      	cmp	r8, r4
 8000aca:	f200 80d9 	bhi.w	8000c80 <__udivmoddi4+0x2bc>
 8000ace:	4618      	mov	r0, r3
 8000ad0:	eba4 0408 	sub.w	r4, r4, r8
 8000ad4:	ea40 400c 	orr.w	r0, r0, ip, lsl #16
 8000ad8:	e7bf      	b.n	8000a5a <__udivmoddi4+0x96>
 8000ada:	428b      	cmp	r3, r1
 8000adc:	d909      	bls.n	8000af2 <__udivmoddi4+0x12e>
 8000ade:	2d00      	cmp	r5, #0
 8000ae0:	f000 80b1 	beq.w	8000c46 <__udivmoddi4+0x282>
 8000ae4:	2600      	movs	r6, #0
 8000ae6:	e9c5 0100 	strd	r0, r1, [r5]
 8000aea:	4630      	mov	r0, r6
 8000aec:	4631      	mov	r1, r6
 8000aee:	e8bd 87f0 	ldmia.w	sp!, {r4, r5, r6, r7, r8, r9, sl, pc}
 8000af2:	fab3 f683 	clz	r6, r3
 8000af6:	2e00      	cmp	r6, #0
 8000af8:	d14a      	bne.n	8000b90 <__udivmoddi4+0x1cc>
 8000afa:	428b      	cmp	r3, r1
 8000afc:	d302      	bcc.n	8000b04 <__udivmoddi4+0x140>
 8000afe:	4282      	cmp	r2, r0
 8000b00:	f200 80b8 	bhi.w	8000c74 <__udivmoddi4+0x2b0>
 8000b04:	1a84      	subs	r4, r0, r2
 8000b06:	eb61 0103 	sbc.w	r1, r1, r3
 8000b0a:	2001      	movs	r0, #1
 8000b0c:	468c      	mov	ip, r1
 8000b0e:	2d00      	cmp	r5, #0
 8000b10:	d0a8      	beq.n	8000a64 <__udivmoddi4+0xa0>
 8000b12:	e9c5 4c00 	strd	r4, ip, [r5]
 8000b16:	e7a5      	b.n	8000a64 <__udivmoddi4+0xa0>
 8000b18:	f1c2 0320 	rsb	r3, r2, #32
 8000b1c:	fa20 f603 	lsr.w	r6, r0, r3
 8000b20:	4097      	lsls	r7, r2
 8000b22:	fa01 f002 	lsl.w	r0, r1, r2
 8000b26:	ea4f 4e17 	mov.w	lr, r7, lsr #16
 8000b2a:	40d9      	lsrs	r1, r3
 8000b2c:	4330      	orrs	r0, r6
 8000b2e:	0c03      	lsrs	r3, r0, #16
 8000b30:	fbb1 f6fe 	udiv	r6, r1, lr
 8000b34:	fa1f f887 	uxth.w	r8, r7
 8000b38:	fb0e 1116 	mls	r1, lr, r6, r1
 8000b3c:	ea43 4301 	orr.w	r3, r3, r1, lsl #16
 8000b40:	fb06 f108 	mul.w	r1, r6, r8
 8000b44:	4299      	cmp	r1, r3
 8000b46:	fa04 f402 	lsl.w	r4, r4, r2
 8000b4a:	d909      	bls.n	8000b60 <__udivmoddi4+0x19c>
 8000b4c:	18fb      	adds	r3, r7, r3
 8000b4e:	f106 3cff 	add.w	ip, r6, #4294967295
 8000b52:	f080 808d 	bcs.w	8000c70 <__udivmoddi4+0x2ac>
 8000b56:	4299      	cmp	r1, r3
 8000b58:	f240 808a 	bls.w	8000c70 <__udivmoddi4+0x2ac>
 8000b5c:	3e02      	subs	r6, #2
 8000b5e:	443b      	add	r3, r7
 8000b60:	1a5b      	subs	r3, r3, r1
 8000b62:	b281      	uxth	r1, r0
 8000b64:	fbb3 f0fe 	udiv	r0, r3, lr
 8000b68:	fb0e 3310 	mls	r3, lr, r0, r3
 8000b6c:	ea41 4103 	orr.w	r1, r1, r3, lsl #16
 8000b70:	fb00 f308 	mul.w	r3, r0, r8
 8000b74:	428b      	cmp	r3, r1
 8000b76:	d907      	bls.n	8000b88 <__udivmoddi4+0x1c4>
 8000b78:	1879      	adds	r1, r7, r1
 8000b7a:	f100 3cff 	add.w	ip, r0, #4294967295
 8000b7e:	d273      	bcs.n	8000c68 <__udivmoddi4+0x2a4>
 8000b80:	428b      	cmp	r3, r1
 8000b82:	d971      	bls.n	8000c68 <__udivmoddi4+0x2a4>
 8000b84:	3802      	subs	r0, #2
 8000b86:	4439      	add	r1, r7
 8000b88:	1acb      	subs	r3, r1, r3
 8000b8a:	ea40 4606 	orr.w	r6, r0, r6, lsl #16
 8000b8e:	e778      	b.n	8000a82 <__udivmoddi4+0xbe>
 8000b90:	f1c6 0c20 	rsb	ip, r6, #32
 8000b94:	fa03 f406 	lsl.w	r4, r3, r6
 8000b98:	fa22 f30c 	lsr.w	r3, r2, ip
 8000b9c:	431c      	orrs	r4, r3
 8000b9e:	fa20 f70c 	lsr.w	r7, r0, ip
 8000ba2:	fa01 f306 	lsl.w	r3, r1, r6
 8000ba6:	ea4f 4e14 	mov.w	lr, r4, lsr #16
 8000baa:	fa21 f10c 	lsr.w	r1, r1, ip
 8000bae:	431f      	orrs	r7, r3
 8000bb0:	0c3b      	lsrs	r3, r7, #16
 8000bb2:	fbb1 f9fe 	udiv	r9, r1, lr
 8000bb6:	fa1f f884 	uxth.w	r8, r4
 8000bba:	fb0e 1119 	mls	r1, lr, r9, r1
 8000bbe:	ea43 4101 	orr.w	r1, r3, r1, lsl #16
 8000bc2:	fb09 fa08 	mul.w	sl, r9, r8
 8000bc6:	458a      	cmp	sl, r1
 8000bc8:	fa02 f206 	lsl.w	r2, r2, r6
 8000bcc:	fa00 f306 	lsl.w	r3, r0, r6
 8000bd0:	d908      	bls.n	8000be4 <__udivmoddi4+0x220>
 8000bd2:	1861      	adds	r1, r4, r1
 8000bd4:	f109 30ff 	add.w	r0, r9, #4294967295
 8000bd8:	d248      	bcs.n	8000c6c <__udivmoddi4+0x2a8>
 8000bda:	458a      	cmp	sl, r1
 8000bdc:	d946      	bls.n	8000c6c <__udivmoddi4+0x2a8>
 8000bde:	f1a9 0902 	sub.w	r9, r9, #2
 8000be2:	4421      	add	r1, r4
 8000be4:	eba1 010a 	sub.w	r1, r1, sl
 8000be8:	b2bf      	uxth	r7, r7
 8000bea:	fbb1 f0fe 	udiv	r0, r1, lr
 8000bee:	fb0e 1110 	mls	r1, lr, r0, r1
 8000bf2:	ea47 4701 	orr.w	r7, r7, r1, lsl #16
 8000bf6:	fb00 f808 	mul.w	r8, r0, r8
 8000bfa:	45b8      	cmp	r8, r7
 8000bfc:	d907      	bls.n	8000c0e <__udivmoddi4+0x24a>
 8000bfe:	19e7      	adds	r7, r4, r7
 8000c00:	f100 31ff 	add.w	r1, r0, #4294967295
 8000c04:	d22e      	bcs.n	8000c64 <__udivmoddi4+0x2a0>
 8000c06:	45b8      	cmp	r8, r7
 8000c08:	d92c      	bls.n	8000c64 <__udivmoddi4+0x2a0>
 8000c0a:	3802      	subs	r0, #2
 8000c0c:	4427      	add	r7, r4
 8000c0e:	ea40 4009 	orr.w	r0, r0, r9, lsl #16
 8000c12:	eba7 0708 	sub.w	r7, r7, r8
 8000c16:	fba0 8902 	umull	r8, r9, r0, r2
 8000c1a:	454f      	cmp	r7, r9
 8000c1c:	46c6      	mov	lr, r8
 8000c1e:	4649      	mov	r1, r9
 8000c20:	d31a      	bcc.n	8000c58 <__udivmoddi4+0x294>
 8000c22:	d017      	beq.n	8000c54 <__udivmoddi4+0x290>
 8000c24:	b15d      	cbz	r5, 8000c3e <__udivmoddi4+0x27a>
 8000c26:	ebb3 020e 	subs.w	r2, r3, lr
 8000c2a:	eb67 0701 	sbc.w	r7, r7, r1
 8000c2e:	fa07 fc0c 	lsl.w	ip, r7, ip
 8000c32:	40f2      	lsrs	r2, r6
 8000c34:	ea4c 0202 	orr.w	r2, ip, r2
 8000c38:	40f7      	lsrs	r7, r6
 8000c3a:	e9c5 2700 	strd	r2, r7, [r5]
 8000c3e:	2600      	movs	r6, #0
 8000c40:	4631      	mov	r1, r6
 8000c42:	e8bd 87f0 	ldmia.w	sp!, {r4, r5, r6, r7, r8, r9, sl, pc}
 8000c46:	462e      	mov	r6, r5
 8000c48:	4628      	mov	r0, r5
 8000c4a:	e70b      	b.n	8000a64 <__udivmoddi4+0xa0>
 8000c4c:	4606      	mov	r6, r0
 8000c4e:	e6e9      	b.n	8000a24 <__udivmoddi4+0x60>
 8000c50:	4618      	mov	r0, r3
 8000c52:	e6fd      	b.n	8000a50 <__udivmoddi4+0x8c>
 8000c54:	4543      	cmp	r3, r8
 8000c56:	d2e5      	bcs.n	8000c24 <__udivmoddi4+0x260>
 8000c58:	ebb8 0e02 	subs.w	lr, r8, r2
 8000c5c:	eb69 0104 	sbc.w	r1, r9, r4
 8000c60:	3801      	subs	r0, #1
 8000c62:	e7df      	b.n	8000c24 <__udivmoddi4+0x260>
 8000c64:	4608      	mov	r0, r1
 8000c66:	e7d2      	b.n	8000c0e <__udivmoddi4+0x24a>
 8000c68:	4660      	mov	r0, ip
 8000c6a:	e78d      	b.n	8000b88 <__udivmoddi4+0x1c4>
 8000c6c:	4681      	mov	r9, r0
 8000c6e:	e7b9      	b.n	8000be4 <__udivmoddi4+0x220>
 8000c70:	4666      	mov	r6, ip
 8000c72:	e775      	b.n	8000b60 <__udivmoddi4+0x19c>
 8000c74:	4630      	mov	r0, r6
 8000c76:	e74a      	b.n	8000b0e <__udivmoddi4+0x14a>
 8000c78:	f1ac 0c02 	sub.w	ip, ip, #2
 8000c7c:	4439      	add	r1, r7
 8000c7e:	e713      	b.n	8000aa8 <__udivmoddi4+0xe4>
 8000c80:	3802      	subs	r0, #2
 8000c82:	443c      	add	r4, r7
 8000c84:	e724      	b.n	8000ad0 <__udivmoddi4+0x10c>
 8000c86:	bf00      	nop

08000c88 <__aeabi_idiv0>:
 8000c88:	4770      	bx	lr
 8000c8a:	bf00      	nop

08000c8c <OsStartToRun>:
.type OsStartToRun, %function
.global OsStartToRun
OsStartToRun:
    .fnstart
    .cantunwind
    ldr     r4, =OS_NVIC_SYSPRI2
 8000c8c:	4c28      	ldr	r4, [pc, #160]	; (8000d30 <TaskSwitch+0x42>)
    ldr     r5, =OS_NVIC_PENDSV_PRI
 8000c8e:	4d29      	ldr	r5, [pc, #164]	; (8000d34 <TaskSwitch+0x46>)
    str     r5, [r4]
 8000c90:	6025      	str	r5, [r4, #0]

    ldr     r1, =g_oldTask
 8000c92:	4929      	ldr	r1, [pc, #164]	; (8000d38 <TaskSwitch+0x4a>)
    str     r0, [r1]
 8000c94:	6008      	str	r0, [r1, #0]

    ldr     r1, =g_runTask
 8000c96:	4929      	ldr	r1, [pc, #164]	; (8000d3c <TaskSwitch+0x4e>)
    str     r0, [r1]
 8000c98:	6008      	str	r0, [r1, #0]

    movs    r1, #2
 8000c9a:	2102      	movs	r1, #2
    msr     CONTROL, r1
 8000c9c:	f381 8814 	msr	CONTROL, r1
    ldrh    r7, [r0 , #4]
 8000ca0:	8887      	ldrh	r7, [r0, #4]

    movs    r6,  #OS_TASK_STATUS_RUNNING
 8000ca2:	2610      	movs	r6, #16
    strh    r6,  [r0 , #4]
 8000ca4:	8086      	strh	r6, [r0, #4]

    msr     psp, r3
    subs    r3, r3, #20
    ldr     r3,  [r3]
#else
    ldr     r12, [r0]
 8000ca6:	f8d0 c000 	ldr.w	ip, [r0]

    add     r12, r12, #36
 8000caa:	f10c 0c24 	add.w	ip, ip, #36	; 0x24
    /* __VFP_FP__ is set by -mfpu; __SOFTFP__ is set by -mfloat-abi=soft. */
#if defined(__VFP_FP__) && !defined(__SOFTFP__)
    add     r12, r12, #4
 8000cae:	f10c 0c04 	add.w	ip, ip, #4
#endif

    ldmfd   r12!, {R0-R7}
 8000cb2:	e8bc 00ff 	ldmia.w	ip!, {r0, r1, r2, r3, r4, r5, r6, r7}

    msr     psp, r12
 8000cb6:	f38c 8809 	msr	PSP, ip

#ifdef LOSCFG_ARCH_FPU_ENABLE
    vpush   {s0};
 8000cba:	ed2d 0a01 	vpush	{s0}
    vpop    {s0};
 8000cbe:	ecbd 0a01 	vpop	{s0}
#endif

#endif

    mov     lr, r5
 8000cc2:	46ae      	mov	lr, r5

    cpsie   I
 8000cc4:	b662      	cpsie	i
    bx      r6
 8000cc6:	4730      	bx	r6

08000cc8 <ArchIntLock>:
.type ArchIntLock, %function
.global ArchIntLock
ArchIntLock:
    .fnstart
    .cantunwind
    mrs     r0, PRIMASK
 8000cc8:	f3ef 8010 	mrs	r0, PRIMASK
    cpsid   I
 8000ccc:	b672      	cpsid	i
    bx      lr
 8000cce:	4770      	bx	lr

08000cd0 <ArchIntUnlock>:
.type ArchIntUnlock, %function
.global ArchIntUnlock
ArchIntUnlock:
    .fnstart
    .cantunwind
    mrs     r0, PRIMASK
 8000cd0:	f3ef 8010 	mrs	r0, PRIMASK
    cpsie   I
 8000cd4:	b662      	cpsie	i
    bx      lr
 8000cd6:	4770      	bx	lr

08000cd8 <ArchIntRestore>:
.type ArchIntRestore, %function
.global ArchIntRestore
ArchIntRestore:
    .fnstart
    .cantunwind
    msr     PRIMASK, r0
 8000cd8:	f380 8810 	msr	PRIMASK, r0
    bx      lr
 8000cdc:	4770      	bx	lr

08000cde <OsTaskSchedule>:
.type OsTaskSchedule, %function
.global OsTaskSchedule
OsTaskSchedule:
    .fnstart
    .cantunwind
    ldr     r2, =OS_NVIC_INT_CTRL
 8000cde:	4a18      	ldr	r2, [pc, #96]	; (8000d40 <TaskSwitch+0x52>)
    ldr     r3, =OS_NVIC_PENDSVSET
 8000ce0:	f04f 5380 	mov.w	r3, #268435456	; 0x10000000
    str     r3, [r2]
 8000ce4:	6013      	str	r3, [r2, #0]
    bx      lr
 8000ce6:	4770      	bx	lr

08000ce8 <osPendSV>:
.type osPendSV, %function
.global osPendSV
osPendSV:
    .fnstart
    .cantunwind
    mrs     r12, PRIMASK
 8000ce8:	f3ef 8c10 	mrs	ip, PRIMASK
    cpsid   I
 8000cec:	b672      	cpsid	i

08000cee <TaskSwitch>:

TaskSwitch:
    mrs     r0, psp
 8000cee:	f3ef 8009 	mrs	r0, PSP

    subs    r0, #36
#else
#if defined(__VFP_FP__) && !defined(__SOFTFP__)
    /* when enter the exc or interrut, lr's value is EXC_RETURN. If FPCA = 1, the 4's bit of EXC_RETURN is 0. */
    tst     lr, #0x10
 8000cf2:	f01e 0f10 	tst.w	lr, #16
    it      eq
 8000cf6:	bf08      	it	eq
    vstmdbeq  r0!, {d8-d15} /* push VFP registers. */
 8000cf8:	ed20 8b10 	vstmdbeq	r0!, {d8-d15}
    stmfd     r0!, {r14}
 8000cfc:	f840 ed04 	str.w	lr, [r0, #-4]!
#endif
    stmfd   r0!, {r4-r12}
 8000d00:	e920 1ff0 	stmdb	r0!, {r4, r5, r6, r7, r8, r9, sl, fp, ip}
#endif
    ldr     r5, =g_oldTask
 8000d04:	4d0c      	ldr	r5, [pc, #48]	; (8000d38 <TaskSwitch+0x4a>)
    ldr     r1, [r5]
 8000d06:	6829      	ldr	r1, [r5, #0]
    str     r0, [r1]
 8000d08:	6008      	str	r0, [r1, #0]

    ldr     r0, =g_runTask
 8000d0a:	480c      	ldr	r0, [pc, #48]	; (8000d3c <TaskSwitch+0x4e>)
    ldr     r0, [r0]
 8000d0c:	6800      	ldr	r0, [r0, #0]
    /* g_oldTask = g_runTask */
    str     r0, [r5]
 8000d0e:	6028      	str	r0, [r5, #0]
    ldr     r1, [r0]
 8000d10:	6801      	ldr	r1, [r0, #0]
    subs    r1,  #36
    ldmfd   r1!, {r4-r7}

    adds    r1,   #20
#else
    ldmfd   r1!, {r4-r12}
 8000d12:	e8b1 1ff0 	ldmia.w	r1!, {r4, r5, r6, r7, r8, r9, sl, fp, ip}
#endif

#if defined(__VFP_FP__) && !defined(__SOFTFP__)
    ldmfd   r1!, {r14}
 8000d16:	f851 eb04 	ldr.w	lr, [r1], #4
    tst     r14, #0x10
 8000d1a:	f01e 0f10 	tst.w	lr, #16
    it      eq
 8000d1e:	bf08      	it	eq
    vldmiaeq r1!, {d8-d15}
 8000d20:	ecb1 8b10 	vldmiaeq	r1!, {d8-d15}
#endif

    msr     psp,  r1
 8000d24:	f381 8809 	msr	PSP, r1

    msr     PRIMASK, r12
 8000d28:	f38c 8810 	msr	PRIMASK, ip
    bx      lr
 8000d2c:	4770      	bx	lr
 8000d2e:	0000      	.short	0x0000
    ldr     r4, =OS_NVIC_SYSPRI2
 8000d30:	e000ed20 	.word	0xe000ed20
    ldr     r5, =OS_NVIC_PENDSV_PRI
 8000d34:	f0f00000 	.word	0xf0f00000
    ldr     r1, =g_oldTask
 8000d38:	200033c0 	.word	0x200033c0
    ldr     r1, =g_runTask
 8000d3c:	200033bc 	.word	0x200033bc
    ldr     r2, =OS_NVIC_INT_CTRL
 8000d40:	e000ed04 	.word	0xe000ed04

08000d44 <OsExcNMI>:
    .type OsExcNMI, %function
    .global OsExcNMI
OsExcNMI:
    .fnstart
    .cantunwind
    MOV  R0, #OS_EXC_CAUSE_NMI
 8000d44:	f04f 0010 	mov.w	r0, #16
    MOV  R1, #0
 8000d48:	f04f 0100 	mov.w	r1, #0
    B    OsExcDispatch
 8000d4c:	e074      	b.n	8000e38 <OsExcDispatch>

08000d4e <OsExcHardFault>:
    .type OsExcHardFault, %function
    .global OsExcHardFault
OsExcHardFault:
    .fnstart
    .cantunwind
    MOV  R0, #OS_EXC_CAUSE_HARDFAULT
 8000d4e:	f04f 0011 	mov.w	r0, #17
    LDR  R2, =OS_NVIC_HFSR
 8000d52:	4a6e      	ldr	r2, [pc, #440]	; (8000f0c <HandleEntry+0xe>)
    LDR  R2, [R2]
 8000d54:	6812      	ldr	r2, [r2, #0]

    MOV  R1, #HF_DEBUGEVT
 8000d56:	f04f 0114 	mov.w	r1, #20
    ORR  R0, R0, R1, LSL #0x8
 8000d5a:	ea40 2001 	orr.w	r0, r0, r1, lsl #8
    TST  R2, #0x80000000
 8000d5e:	f012 4f00 	tst.w	r2, #2147483648	; 0x80000000
    BNE  OsExcDispatch /* DEBUGEVT */
 8000d62:	d169      	bne.n	8000e38 <OsExcDispatch>

    AND  R0, #0x000000FF
 8000d64:	f000 00ff 	and.w	r0, r0, #255	; 0xff
    MOV  R1, #HF_VECTBL
 8000d68:	f04f 0115 	mov.w	r1, #21
    ORR  R0, R0, R1, LSL #0x8
 8000d6c:	ea40 2001 	orr.w	r0, r0, r1, lsl #8
    TST  R2, #0x00000002
 8000d70:	f012 0f02 	tst.w	r2, #2
    BNE  OsExcDispatch /* VECTBL */
 8000d74:	d160      	bne.n	8000e38 <OsExcDispatch>

    /* if not DEBUGEVT and VECTBL then is FORCED */
    AND  R0, #0x000000FF
 8000d76:	f000 00ff 	and.w	r0, r0, #255	; 0xff

    MRS  R2, MSP
 8000d7a:	f3ef 8208 	mrs	r2, MSP
    LDR  R1, [R2, EXCEPT_FRAME_OFFSET_PC]
 8000d7e:	6991      	ldr	r1, [r2, #24]

    LDR  R2, =OS_NVIC_FSR
 8000d80:	4a63      	ldr	r2, [pc, #396]	; (8000f10 <HandleEntry+0x12>)
    LDR  R2, [R2]
 8000d82:	6812      	ldr	r2, [r2, #0]

    TST  R2, #0x8000 /* BFARVALID */
 8000d84:	f412 4f00 	tst.w	r2, #32768	; 0x8000
    BNE  HFBusFault /* BusFault */
 8000d88:	d106      	bne.n	8000d98 <HFBusFault>

    TST  R2, #0x80 /* MMARVALID */
 8000d8a:	f012 0f80 	tst.w	r2, #128	; 0x80
    BNE  HFMemFault /* MemFault */
 8000d8e:	d109      	bne.n	8000da4 <HFMemFault>

    MOV  R12,#0
 8000d90:	f04f 0c00 	mov.w	ip, #0
    B    OsHFExcCommonBMU
 8000d94:	f000 b80a 	b.w	8000dac <OsHFExcCommonBMU>

08000d98 <HFBusFault>:

    .type HFBusFault, %function
HFBusFault:
    .fnstart
    .cantunwind
    LDR  R1, =OS_NVIC_BFAR
 8000d98:	495e      	ldr	r1, [pc, #376]	; (8000f14 <HandleEntry+0x16>)
    LDR  R1, [R1]
 8000d9a:	6809      	ldr	r1, [r1, #0]
    MOV  R12, #OS_EXC_FLAG_FAULTADDR_VALID
 8000d9c:	f44f 3c80 	mov.w	ip, #65536	; 0x10000
    B    OsHFExcCommonBMU
 8000da0:	f000 b804 	b.w	8000dac <OsHFExcCommonBMU>

08000da4 <HFMemFault>:

    .type HFMemFault, %function
HFMemFault:
    .fnstart
    .cantunwind
    LDR  R1, =OS_NVIC_MMAR
 8000da4:	495c      	ldr	r1, [pc, #368]	; (8000f18 <HandleEntry+0x1a>)
    LDR  R1, [R1]
 8000da6:	6809      	ldr	r1, [r1, #0]
    MOV  R12, #OS_EXC_FLAG_FAULTADDR_VALID
 8000da8:	f44f 3c80 	mov.w	ip, #65536	; 0x10000

08000dac <OsHFExcCommonBMU>:
    .type OsHFExcCommonBMU, %function
    .global OsHFExcCommonBMU
OsHFExcCommonBMU:
    .fnstart
    .cantunwind
    CLZ  R2, R2
 8000dac:	fab2 f282 	clz	r2, r2
    LDR  R3, =g_excTbl
 8000db0:	4b5a      	ldr	r3, [pc, #360]	; (8000f1c <HandleEntry+0x1e>)
    ADD  R3, R3, R2
 8000db2:	4413      	add	r3, r2
    LDRB R2, [R3]
 8000db4:	781a      	ldrb	r2, [r3, #0]
    ORR  R0, R0, R2, LSL #0x8
 8000db6:	ea40 2002 	orr.w	r0, r0, r2, lsl #8
    ORR  R0, R12
 8000dba:	ea40 000c 	orr.w	r0, r0, ip
    B    OsExcDispatch
 8000dbe:	e03b      	b.n	8000e38 <OsExcDispatch>

08000dc0 <OsExcSvcCall>:
    .type OsExcSvcCall, %function
    .global OsExcSvcCall
OsExcSvcCall:
    .fnstart
    .cantunwind
    TST   LR, #0x4
 8000dc0:	f01e 0f04 	tst.w	lr, #4
    ITE   EQ
 8000dc4:	bf0c      	ite	eq
    MRSEQ R0, MSP
 8000dc6:	f3ef 8008 	mrseq	r0, MSP
    MRSNE R0, PSP
 8000dca:	f3ef 8009 	mrsne	r0, PSP
    LDR   R1, [R0,#24]
 8000dce:	6981      	ldr	r1, [r0, #24]
    LDRB  R0, [R1,#-2]
 8000dd0:	f811 0c02 	ldrb.w	r0, [r1, #-2]
    MOV   R1, #0
 8000dd4:	f04f 0100 	mov.w	r1, #0
    B     OsExcDispatch
 8000dd8:	e02e      	b.n	8000e38 <OsExcDispatch>

08000dda <OsExcBusFault>:
    .type OsExcBusFault, %function
    .global OsExcBusFault
OsExcBusFault:
    .fnstart
    .cantunwind
    LDR  R0, =OS_NVIC_FSR
 8000dda:	484d      	ldr	r0, [pc, #308]	; (8000f10 <HandleEntry+0x12>)
    LDR  R0, [R0]
 8000ddc:	6800      	ldr	r0, [r0, #0]

    TST  R0, #0x8000 /* BFARVALID */
 8000dde:	f410 4f00 	tst.w	r0, #32768	; 0x8000
    BEQ  ExcBusNoAddr
 8000de2:	d006      	beq.n	8000df2 <ExcBusNoAddr>
    LDR  R1, =OS_NVIC_BFAR
 8000de4:	494b      	ldr	r1, [pc, #300]	; (8000f14 <HandleEntry+0x16>)
    LDR  R1, [R1]
 8000de6:	6809      	ldr	r1, [r1, #0]
    MOV  R12, #OS_EXC_FLAG_FAULTADDR_VALID
 8000de8:	f44f 3c80 	mov.w	ip, #65536	; 0x10000
    AND  R0, #0x1F00
 8000dec:	f400 50f8 	and.w	r0, r0, #7936	; 0x1f00

    B    OsExcCommonBMU
 8000df0:	e01b      	b.n	8000e2a <OsExcCommonBMU>

08000df2 <ExcBusNoAddr>:

    .type ExcBusNoAddr, %function
ExcBusNoAddr:
    .fnstart
    .cantunwind
    MOV  R12,#0
 8000df2:	f04f 0c00 	mov.w	ip, #0
    B    OsExcCommonBMU
 8000df6:	e018      	b.n	8000e2a <OsExcCommonBMU>

08000df8 <OsExcMemFault>:
    .type OsExcMemFault, %function
    .global OsExcMemFault
OsExcMemFault:
    .fnstart
    .cantunwind
    LDR  R0, =OS_NVIC_FSR
 8000df8:	4845      	ldr	r0, [pc, #276]	; (8000f10 <HandleEntry+0x12>)
    LDR  R0, [R0]
 8000dfa:	6800      	ldr	r0, [r0, #0]

    TST  R0, #0x80 /* MMARVALID */
 8000dfc:	f010 0f80 	tst.w	r0, #128	; 0x80
    BEQ  ExcMemNoAddr
 8000e00:	d006      	beq.n	8000e10 <ExcMemNoAddr>
    LDR  R1, =OS_NVIC_MMAR
 8000e02:	4945      	ldr	r1, [pc, #276]	; (8000f18 <HandleEntry+0x1a>)
    LDR  R1, [R1]
 8000e04:	6809      	ldr	r1, [r1, #0]
    MOV  R12, #OS_EXC_FLAG_FAULTADDR_VALID
 8000e06:	f44f 3c80 	mov.w	ip, #65536	; 0x10000
    AND  R0, #0x1B
 8000e0a:	f000 001b 	and.w	r0, r0, #27

    B    OsExcCommonBMU
 8000e0e:	e00c      	b.n	8000e2a <OsExcCommonBMU>

08000e10 <ExcMemNoAddr>:

    .type ExcMemNoAddr, %function
ExcMemNoAddr:
    .fnstart
    .cantunwind
    MOV  R12,#0
 8000e10:	f04f 0c00 	mov.w	ip, #0
    B    OsExcCommonBMU
 8000e14:	e009      	b.n	8000e2a <OsExcCommonBMU>

08000e16 <OsExcUsageFault>:
    .fnend

    .type OsExcUsageFault, %function
    .global OsExcUsageFault
OsExcUsageFault:
    LDR  R0, =OS_NVIC_FSR
 8000e16:	483e      	ldr	r0, [pc, #248]	; (8000f10 <HandleEntry+0x12>)
    LDR  R0, [R0]
 8000e18:	6800      	ldr	r0, [r0, #0]

    LDR  R1, =#0x030F
 8000e1a:	f240 310f 	movw	r1, #783	; 0x30f
    LSL  R1, #16
 8000e1e:	ea4f 4101 	mov.w	r1, r1, lsl #16
    AND  R0, R1
 8000e22:	ea00 0001 	and.w	r0, r0, r1
    MOV  R12, #0
 8000e26:	f04f 0c00 	mov.w	ip, #0

08000e2a <OsExcCommonBMU>:

OsExcCommonBMU:
    CLZ  R0, R0
 8000e2a:	fab0 f080 	clz	r0, r0
    LDR  R3, =g_excTbl
 8000e2e:	4b3b      	ldr	r3, [pc, #236]	; (8000f1c <HandleEntry+0x1e>)
    ADD  R3, R3, R0
 8000e30:	4403      	add	r3, r0
    LDRB R0, [R3]
 8000e32:	7818      	ldrb	r0, [r3, #0]
    ORR  R0, R0, R12
 8000e34:	ea40 000c 	orr.w	r0, r0, ip

08000e38 <OsExcDispatch>:

/* R0 -- EXCCAUSE(bit 16 is 1 if EXCADDR valid),  R1 -- EXCADDR */
OsExcDispatch:
    LDR   R2, =OS_NVIC_ACT_BASE
 8000e38:	4a39      	ldr	r2, [pc, #228]	; (8000f20 <HandleEntry+0x22>)
    MOV   R12, #8 /* R12 is hwi check loop counter */
 8000e3a:	f04f 0c08 	mov.w	ip, #8

08000e3e <HwiActiveCheck>:

HwiActiveCheck:
    LDR   R3, [R2] /* R3 store active hwi register when exc */
 8000e3e:	6813      	ldr	r3, [r2, #0]
    CMP   R3, #0
 8000e40:	2b00      	cmp	r3, #0
    BEQ   HwiActiveCheckNext
 8000e42:	d01e      	beq.n	8000e82 <HwiActiveCheckNext>

    /* exc occurred in IRQ */
    ORR   R0, #OS_EXC_FLAG_IN_HWI
 8000e44:	f440 3000 	orr.w	r0, r0, #131072	; 0x20000
    RBIT  R2, R3
 8000e48:	fa93 f2a3 	rbit	r2, r3
    CLZ   R2, R2
 8000e4c:	fab2 f282 	clz	r2, r2
    AND   R12, #1
 8000e50:	f00c 0c01 	and.w	ip, ip, #1
    ADD   R2, R2, R12, LSL #5 /* calculate R2 (hwi number) as pid, thrid parameter */
 8000e54:	eb02 124c 	add.w	r2, r2, ip, lsl #5

08000e58 <ExcInMSP>:

ExcInMSP:
    CMP   LR, #0xFFFFFFED
 8000e58:	f11e 0f13 	cmn.w	lr, #19
    BNE   NoFloatInMsp
 8000e5c:	d108      	bne.n	8000e70 <NoFloatInMsp>
    ADD   R3, R13, #104
 8000e5e:	ab1a      	add	r3, sp, #104	; 0x68
    PUSH  {R3}
 8000e60:	b408      	push	{r3}
    MRS   R12, PRIMASK /* store message-->exc: disable int */
 8000e62:	f3ef 8c10 	mrs	ip, PRIMASK
    PUSH  {R4-R12} /* store message-->exc: {R4-R12} */
 8000e66:	e92d 1ff0 	stmdb	sp!, {r4, r5, r6, r7, r8, r9, sl, fp, ip}
    VPUSH {D8-D15}
 8000e6a:	ed2d 8b10 	vpush	{d8-d15}
    B     HandleEntry
 8000e6e:	e046      	b.n	8000efe <HandleEntry>

08000e70 <NoFloatInMsp>:

NoFloatInMsp:
    ADD   R3, R13, #32
 8000e70:	ab08      	add	r3, sp, #32
    PUSH  {R3} /* save IRQ SP, store message-->exc: MSP(R13) */
 8000e72:	b408      	push	{r3}

    MRS   R12, PRIMASK /* store message-->exc: disable int? */
 8000e74:	f3ef 8c10 	mrs	ip, PRIMASK
    PUSH  {R4-R12} /* store message-->exc: {R4-R12} */
 8000e78:	e92d 1ff0 	stmdb	sp!, {r4, r5, r6, r7, r8, r9, sl, fp, ip}
    ORR   R0, R0, #OS_EXC_FLAG_NO_FLOAT
 8000e7c:	f040 5080 	orr.w	r0, r0, #268435456	; 0x10000000
    B     HandleEntry
 8000e80:	e03d      	b.n	8000efe <HandleEntry>

08000e82 <HwiActiveCheckNext>:

HwiActiveCheckNext:
    ADD   R2, #4 /* next NVIC ACT ADDR */
 8000e82:	f102 0204 	add.w	r2, r2, #4
    SUBS  R12, #1
 8000e86:	f1bc 0c01 	subs.w	ip, ip, #1
    BNE   HwiActiveCheck
 8000e8a:	d1d8      	bne.n	8000e3e <HwiActiveCheck>

    /* NMI interrupt excption */
    LDR   R2, =OS_NVIC_SHCSRS
 8000e8c:	4a25      	ldr	r2, [pc, #148]	; (8000f24 <HandleEntry+0x26>)
    LDRH  R2,[R2]
 8000e8e:	8812      	ldrh	r2, [r2, #0]
    LDR   R3,=OS_NVIC_SHCSR_MASK
 8000e90:	f44f 6340 	mov.w	r3, #3072	; 0xc00
    AND   R2, R2,R3
 8000e94:	ea02 0203 	and.w	r2, r2, r3
    CMP   R2,#0
 8000e98:	2a00      	cmp	r2, #0
    BNE   ExcInMSP
 8000e9a:	d1dd      	bne.n	8000e58 <ExcInMSP>

    /* exc occurred in Task or Init or exc reserved for register info from task stack */
    LDR   R2, =g_taskScheduled
 8000e9c:	4a22      	ldr	r2, [pc, #136]	; (8000f28 <HandleEntry+0x2a>)
    LDR   R2, [R2]
 8000e9e:	6812      	ldr	r2, [r2, #0]
    TST   R2, #1 /*os scheduled */
 8000ea0:	f012 0f01 	tst.w	r2, #1
    BEQ   ExcInMSP /* if exc occurred in Init then branch */
 8000ea4:	d0d8      	beq.n	8000e58 <ExcInMSP>


    CMP   LR, #0xFFFFFFED /*auto push floating registers */
 8000ea6:	f11e 0f13 	cmn.w	lr, #19
    BNE   NoFloatInPsp
 8000eaa:	d116      	bne.n	8000eda <NoFloatInPsp>

    /* exc occurred in Task */
    MOV   R2,  R13
 8000eac:	466a      	mov	r2, sp
    SUB   R13, #96 /* add 8 Bytes reg(for STMFD) */
 8000eae:	b098      	sub	sp, #96	; 0x60

    MRS   R3,  PSP
 8000eb0:	f3ef 8309 	mrs	r3, PSP
    ADD   R12, R3, #104
 8000eb4:	f103 0c68 	add.w	ip, r3, #104	; 0x68
    PUSH  {R12} /* save task SP */
 8000eb8:	f84d cd04 	str.w	ip, [sp, #-4]!

    MRS   R12, PRIMASK
 8000ebc:	f3ef 8c10 	mrs	ip, PRIMASK
    PUSH  {R4-R12}
 8000ec0:	e92d 1ff0 	stmdb	sp!, {r4, r5, r6, r7, r8, r9, sl, fp, ip}
    VPUSH {D8-D15}
 8000ec4:	ed2d 8b10 	vpush	{d8-d15}

    /* copy auto saved task register */
    LDMFD   R3!, {R4-R11} /* R4-R11 store PSP reg(auto push when exc in task) */
 8000ec8:	e8b3 0ff0 	ldmia.w	r3!, {r4, r5, r6, r7, r8, r9, sl, fp}
    VLDMIA  R3!, {D8-D15}
 8000ecc:	ecb3 8b10 	vldmia	r3!, {d8-d15}
    VSTMDB  R2!, {D8-D15}
 8000ed0:	ed22 8b10 	vstmdb	r2!, {d8-d15}
    STMFD   R2!, {R4-R11}
 8000ed4:	e922 0ff0 	stmdb	r2!, {r4, r5, r6, r7, r8, r9, sl, fp}
    B       HandleEntry
 8000ed8:	e011      	b.n	8000efe <HandleEntry>

08000eda <NoFloatInPsp>:

NoFloatInPsp:
    MOV   R2,  R13 /*no auto push floating registers */
 8000eda:	466a      	mov	r2, sp
    SUB   R13, #32 /* add 8 Bytes reg(for STMFD) */
 8000edc:	b088      	sub	sp, #32

    MRS   R3,  PSP
 8000ede:	f3ef 8309 	mrs	r3, PSP
    ADD   R12, R3, #32
 8000ee2:	f103 0c20 	add.w	ip, r3, #32
    PUSH  {R12} /* save task SP */
 8000ee6:	f84d cd04 	str.w	ip, [sp, #-4]!

    MRS   R12, PRIMASK
 8000eea:	f3ef 8c10 	mrs	ip, PRIMASK
    PUSH  {R4-R12}
 8000eee:	e92d 1ff0 	stmdb	sp!, {r4, r5, r6, r7, r8, r9, sl, fp, ip}

    LDMFD R3, {R4-R11} /* R4-R11 store PSP reg(auto push when exc in task) */
 8000ef2:	e893 0ff0 	ldmia.w	r3, {r4, r5, r6, r7, r8, r9, sl, fp}
    STMFD R2!, {R4-R11}
 8000ef6:	e922 0ff0 	stmdb	r2!, {r4, r5, r6, r7, r8, r9, sl, fp}
    ORR   R0, R0, #OS_EXC_FLAG_NO_FLOAT
 8000efa:	f040 5080 	orr.w	r0, r0, #268435456	; 0x10000000

08000efe <HandleEntry>:

HandleEntry:
    MOV   R3, R13 /* R13:the 4th param */
 8000efe:	466b      	mov	r3, sp
    CPSID I
 8000f00:	b672      	cpsid	i
    CPSID F
 8000f02:	b671      	cpsid	f
    B     OsExcHandleEntry
 8000f04:	f014 bd6c 	b.w	80159e0 <OsExcHandleEntry>

    NOP
 8000f08:	bf00      	nop
 8000f0a:	0000      	.short	0x0000
    LDR  R2, =OS_NVIC_HFSR
 8000f0c:	e000ed2c 	.word	0xe000ed2c
    LDR  R2, =OS_NVIC_FSR
 8000f10:	e000ed28 	.word	0xe000ed28
    LDR  R1, =OS_NVIC_BFAR
 8000f14:	e000ed38 	.word	0xe000ed38
    LDR  R1, =OS_NVIC_MMAR
 8000f18:	e000ed34 	.word	0xe000ed34
    LDR  R3, =g_excTbl
 8000f1c:	2000050c 	.word	0x2000050c
    LDR   R2, =OS_NVIC_ACT_BASE
 8000f20:	e000e300 	.word	0xe000e300
    LDR   R2, =OS_NVIC_SHCSRS
 8000f24:	e000ed24 	.word	0xe000ed24
    LDR   R2, =g_taskScheduled
 8000f28:	200036dc 	.word	0x200036dc

08000f2c <__gedf2>:
 8000f2c:	f04f 3cff 	mov.w	ip, #4294967295
 8000f30:	e006      	b.n	8000f40 <__cmpdf2+0x4>
 8000f32:	bf00      	nop

08000f34 <__ledf2>:
 8000f34:	f04f 0c01 	mov.w	ip, #1
 8000f38:	e002      	b.n	8000f40 <__cmpdf2+0x4>
 8000f3a:	bf00      	nop

08000f3c <__cmpdf2>:
 8000f3c:	f04f 0c01 	mov.w	ip, #1
 8000f40:	f84d cd04 	str.w	ip, [sp, #-4]!
 8000f44:	ea4f 0c41 	mov.w	ip, r1, lsl #1
 8000f48:	ea7f 5c6c 	mvns.w	ip, ip, asr #21
 8000f4c:	ea4f 0c43 	mov.w	ip, r3, lsl #1
 8000f50:	bf18      	it	ne
 8000f52:	ea7f 5c6c 	mvnsne.w	ip, ip, asr #21
 8000f56:	d01b      	beq.n	8000f90 <__cmpdf2+0x54>
 8000f58:	b001      	add	sp, #4
 8000f5a:	ea50 0c41 	orrs.w	ip, r0, r1, lsl #1
 8000f5e:	bf0c      	ite	eq
 8000f60:	ea52 0c43 	orrseq.w	ip, r2, r3, lsl #1
 8000f64:	ea91 0f03 	teqne	r1, r3
 8000f68:	bf02      	ittt	eq
 8000f6a:	ea90 0f02 	teqeq	r0, r2
 8000f6e:	2000      	moveq	r0, #0
 8000f70:	4770      	bxeq	lr
 8000f72:	f110 0f00 	cmn.w	r0, #0
 8000f76:	ea91 0f03 	teq	r1, r3
 8000f7a:	bf58      	it	pl
 8000f7c:	4299      	cmppl	r1, r3
 8000f7e:	bf08      	it	eq
 8000f80:	4290      	cmpeq	r0, r2
 8000f82:	bf2c      	ite	cs
 8000f84:	17d8      	asrcs	r0, r3, #31
 8000f86:	ea6f 70e3 	mvncc.w	r0, r3, asr #31
 8000f8a:	f040 0001 	orr.w	r0, r0, #1
 8000f8e:	4770      	bx	lr
 8000f90:	ea4f 0c41 	mov.w	ip, r1, lsl #1
 8000f94:	ea7f 5c6c 	mvns.w	ip, ip, asr #21
 8000f98:	d102      	bne.n	8000fa0 <__cmpdf2+0x64>
 8000f9a:	ea50 3c01 	orrs.w	ip, r0, r1, lsl #12
 8000f9e:	d107      	bne.n	8000fb0 <__cmpdf2+0x74>
 8000fa0:	ea4f 0c43 	mov.w	ip, r3, lsl #1
 8000fa4:	ea7f 5c6c 	mvns.w	ip, ip, asr #21
 8000fa8:	d1d6      	bne.n	8000f58 <__cmpdf2+0x1c>
 8000faa:	ea52 3c03 	orrs.w	ip, r2, r3, lsl #12
 8000fae:	d0d3      	beq.n	8000f58 <__cmpdf2+0x1c>
 8000fb0:	f85d 0b04 	ldr.w	r0, [sp], #4
 8000fb4:	4770      	bx	lr
 8000fb6:	bf00      	nop

08000fb8 <__aeabi_cdrcmple>:
 8000fb8:	4684      	mov	ip, r0
 8000fba:	4610      	mov	r0, r2
 8000fbc:	4662      	mov	r2, ip
 8000fbe:	468c      	mov	ip, r1
 8000fc0:	4619      	mov	r1, r3
 8000fc2:	4663      	mov	r3, ip
 8000fc4:	e000      	b.n	8000fc8 <__aeabi_cdcmpeq>
 8000fc6:	bf00      	nop

08000fc8 <__aeabi_cdcmpeq>:
 8000fc8:	b501      	push	{r0, lr}
 8000fca:	f7ff ffb7 	bl	8000f3c <__cmpdf2>
 8000fce:	2800      	cmp	r0, #0
 8000fd0:	bf48      	it	mi
 8000fd2:	f110 0f00 	cmnmi.w	r0, #0
 8000fd6:	bd01      	pop	{r0, pc}

08000fd8 <__aeabi_dcmpeq>:
 8000fd8:	f84d ed08 	str.w	lr, [sp, #-8]!
 8000fdc:	f7ff fff4 	bl	8000fc8 <__aeabi_cdcmpeq>
 8000fe0:	bf0c      	ite	eq
 8000fe2:	2001      	moveq	r0, #1
 8000fe4:	2000      	movne	r0, #0
 8000fe6:	f85d fb08 	ldr.w	pc, [sp], #8
 8000fea:	bf00      	nop

08000fec <__aeabi_dcmplt>:
 8000fec:	f84d ed08 	str.w	lr, [sp, #-8]!
 8000ff0:	f7ff ffea 	bl	8000fc8 <__aeabi_cdcmpeq>
 8000ff4:	bf34      	ite	cc
 8000ff6:	2001      	movcc	r0, #1
 8000ff8:	2000      	movcs	r0, #0
 8000ffa:	f85d fb08 	ldr.w	pc, [sp], #8
 8000ffe:	bf00      	nop

08001000 <__aeabi_dcmple>:
 8001000:	f84d ed08 	str.w	lr, [sp, #-8]!
 8001004:	f7ff ffe0 	bl	8000fc8 <__aeabi_cdcmpeq>
 8001008:	bf94      	ite	ls
 800100a:	2001      	movls	r0, #1
 800100c:	2000      	movhi	r0, #0
 800100e:	f85d fb08 	ldr.w	pc, [sp], #8
 8001012:	bf00      	nop

08001014 <__aeabi_dcmpge>:
 8001014:	f84d ed08 	str.w	lr, [sp, #-8]!
 8001018:	f7ff ffce 	bl	8000fb8 <__aeabi_cdrcmple>
 800101c:	bf94      	ite	ls
 800101e:	2001      	movls	r0, #1
 8001020:	2000      	movhi	r0, #0
 8001022:	f85d fb08 	ldr.w	pc, [sp], #8
 8001026:	bf00      	nop

08001028 <__aeabi_dcmpgt>:
 8001028:	f84d ed08 	str.w	lr, [sp, #-8]!
 800102c:	f7ff ffc4 	bl	8000fb8 <__aeabi_cdrcmple>
 8001030:	bf34      	ite	cc
 8001032:	2001      	movcc	r0, #1
 8001034:	2000      	movcs	r0, #0
 8001036:	f85d fb08 	ldr.w	pc, [sp], #8
 800103a:	bf00      	nop

0800103c <__aeabi_d2iz>:
 800103c:	ea4f 0241 	mov.w	r2, r1, lsl #1
 8001040:	f512 1200 	adds.w	r2, r2, #2097152	; 0x200000
 8001044:	d215      	bcs.n	8001072 <__aeabi_d2iz+0x36>
 8001046:	d511      	bpl.n	800106c <__aeabi_d2iz+0x30>
 8001048:	f46f 7378 	mvn.w	r3, #992	; 0x3e0
 800104c:	ebb3 5262 	subs.w	r2, r3, r2, asr #21
 8001050:	d912      	bls.n	8001078 <__aeabi_d2iz+0x3c>
 8001052:	ea4f 23c1 	mov.w	r3, r1, lsl #11
 8001056:	f043 4300 	orr.w	r3, r3, #2147483648	; 0x80000000
 800105a:	ea43 5350 	orr.w	r3, r3, r0, lsr #21
 800105e:	f011 4f00 	tst.w	r1, #2147483648	; 0x80000000
 8001062:	fa23 f002 	lsr.w	r0, r3, r2
 8001066:	bf18      	it	ne
 8001068:	4240      	negne	r0, r0
 800106a:	4770      	bx	lr
 800106c:	f04f 0000 	mov.w	r0, #0
 8001070:	4770      	bx	lr
 8001072:	ea50 3001 	orrs.w	r0, r0, r1, lsl #12
 8001076:	d105      	bne.n	8001084 <__aeabi_d2iz+0x48>
 8001078:	f011 4000 	ands.w	r0, r1, #2147483648	; 0x80000000
 800107c:	bf08      	it	eq
 800107e:	f06f 4000 	mvneq.w	r0, #2147483648	; 0x80000000
 8001082:	4770      	bx	lr
 8001084:	f04f 0000 	mov.w	r0, #0
 8001088:	4770      	bx	lr
 800108a:	bf00      	nop

0800108c <__aeabi_d2uiz>:
 800108c:	004a      	lsls	r2, r1, #1
 800108e:	d211      	bcs.n	80010b4 <__aeabi_d2uiz+0x28>
 8001090:	f512 1200 	adds.w	r2, r2, #2097152	; 0x200000
 8001094:	d211      	bcs.n	80010ba <__aeabi_d2uiz+0x2e>
 8001096:	d50d      	bpl.n	80010b4 <__aeabi_d2uiz+0x28>
 8001098:	f46f 7378 	mvn.w	r3, #992	; 0x3e0
 800109c:	ebb3 5262 	subs.w	r2, r3, r2, asr #21
 80010a0:	d40e      	bmi.n	80010c0 <__aeabi_d2uiz+0x34>
 80010a2:	ea4f 23c1 	mov.w	r3, r1, lsl #11
 80010a6:	f043 4300 	orr.w	r3, r3, #2147483648	; 0x80000000
 80010aa:	ea43 5350 	orr.w	r3, r3, r0, lsr #21
 80010ae:	fa23 f002 	lsr.w	r0, r3, r2
 80010b2:	4770      	bx	lr
 80010b4:	f04f 0000 	mov.w	r0, #0
 80010b8:	4770      	bx	lr
 80010ba:	ea50 3001 	orrs.w	r0, r0, r1, lsl #12
 80010be:	d102      	bne.n	80010c6 <__aeabi_d2uiz+0x3a>
 80010c0:	f04f 30ff 	mov.w	r0, #4294967295
 80010c4:	4770      	bx	lr
 80010c6:	f04f 0000 	mov.w	r0, #0
 80010ca:	4770      	bx	lr

080010cc <__aeabi_ldivmod>:
 80010cc:	b97b      	cbnz	r3, 80010ee <__aeabi_ldivmod+0x22>
 80010ce:	b972      	cbnz	r2, 80010ee <__aeabi_ldivmod+0x22>
 80010d0:	2900      	cmp	r1, #0
 80010d2:	bfbe      	ittt	lt
 80010d4:	2000      	movlt	r0, #0
 80010d6:	f04f 4100 	movlt.w	r1, #2147483648	; 0x80000000
 80010da:	e006      	blt.n	80010ea <__aeabi_ldivmod+0x1e>
 80010dc:	bf08      	it	eq
 80010de:	2800      	cmpeq	r0, #0
 80010e0:	bf1c      	itt	ne
 80010e2:	f06f 4100 	mvnne.w	r1, #2147483648	; 0x80000000
 80010e6:	f04f 30ff 	movne.w	r0, #4294967295
 80010ea:	f7ff bdcd 	b.w	8000c88 <__aeabi_idiv0>
 80010ee:	f1ad 0c08 	sub.w	ip, sp, #8
 80010f2:	e96d ce04 	strd	ip, lr, [sp, #-16]!
 80010f6:	2900      	cmp	r1, #0
 80010f8:	db09      	blt.n	800110e <__aeabi_ldivmod+0x42>
 80010fa:	2b00      	cmp	r3, #0
 80010fc:	db1a      	blt.n	8001134 <__aeabi_ldivmod+0x68>
 80010fe:	f7ff fc61 	bl	80009c4 <__udivmoddi4>
 8001102:	f8dd e004 	ldr.w	lr, [sp, #4]
 8001106:	e9dd 2302 	ldrd	r2, r3, [sp, #8]
 800110a:	b004      	add	sp, #16
 800110c:	4770      	bx	lr
 800110e:	4240      	negs	r0, r0
 8001110:	eb61 0141 	sbc.w	r1, r1, r1, lsl #1
 8001114:	2b00      	cmp	r3, #0
 8001116:	db1b      	blt.n	8001150 <__aeabi_ldivmod+0x84>
 8001118:	f7ff fc54 	bl	80009c4 <__udivmoddi4>
 800111c:	f8dd e004 	ldr.w	lr, [sp, #4]
 8001120:	e9dd 2302 	ldrd	r2, r3, [sp, #8]
 8001124:	b004      	add	sp, #16
 8001126:	4240      	negs	r0, r0
 8001128:	eb61 0141 	sbc.w	r1, r1, r1, lsl #1
 800112c:	4252      	negs	r2, r2
 800112e:	eb63 0343 	sbc.w	r3, r3, r3, lsl #1
 8001132:	4770      	bx	lr
 8001134:	4252      	negs	r2, r2
 8001136:	eb63 0343 	sbc.w	r3, r3, r3, lsl #1
 800113a:	f7ff fc43 	bl	80009c4 <__udivmoddi4>
 800113e:	f8dd e004 	ldr.w	lr, [sp, #4]
 8001142:	e9dd 2302 	ldrd	r2, r3, [sp, #8]
 8001146:	b004      	add	sp, #16
 8001148:	4240      	negs	r0, r0
 800114a:	eb61 0141 	sbc.w	r1, r1, r1, lsl #1
 800114e:	4770      	bx	lr
 8001150:	4252      	negs	r2, r2
 8001152:	eb63 0343 	sbc.w	r3, r3, r3, lsl #1
 8001156:	f7ff fc35 	bl	80009c4 <__udivmoddi4>
 800115a:	f8dd e004 	ldr.w	lr, [sp, #4]
 800115e:	e9dd 2302 	ldrd	r2, r3, [sp, #8]
 8001162:	b004      	add	sp, #16
 8001164:	4252      	negs	r2, r2
 8001166:	eb63 0343 	sbc.w	r3, r3, r3, lsl #1
 800116a:	4770      	bx	lr

0800116c <Reset_Handler>:

    .section  .text.Reset_Handler
  .weak  Reset_Handler
  .type  Reset_Handler, %function
Reset_Handler: 
  cpsid i 
 800116c:	b672      	cpsid	i
  ldr   sp, =_estack      /* set stack pointer */
 800116e:	f8df d048 	ldr.w	sp, [pc, #72]	; 80011b8 <LoopFillZerobss+0x10>

  movs  r1, #0
 8001172:	2100      	movs	r1, #0
  b  LoopCopyVectorInit
 8001174:	e003      	b.n	800117e <LoopCopyVectorInit>

08001176 <CopyVectorInit>:

CopyVectorInit:
  ldr   r3, =_si_liteos_vector_data
 8001176:	4b11      	ldr	r3, [pc, #68]	; (80011bc <LoopFillZerobss+0x14>)
  ldr   r3, [r3, r1]
 8001178:	585b      	ldr	r3, [r3, r1]
  str   r3, [r0, r1]
 800117a:	5043      	str	r3, [r0, r1]
  adds   r1, r1, #4
 800117c:	3104      	adds	r1, #4

0800117e <LoopCopyVectorInit>:

LoopCopyVectorInit:
  ldr   r0, =_s_liteos_vector
 800117e:	4810      	ldr	r0, [pc, #64]	; (80011c0 <LoopFillZerobss+0x18>)
  ldr   r3, =_e_liteos_vector
 8001180:	4b10      	ldr	r3, [pc, #64]	; (80011c4 <LoopFillZerobss+0x1c>)
  adds   r2, r0, r1
 8001182:	1842      	adds	r2, r0, r1
  cmp   r2, r3
 8001184:	429a      	cmp	r2, r3
  bcc   CopyVectorInit
 8001186:	d3f6      	bcc.n	8001176 <CopyVectorInit>

/* Copy the data segment initializers from flash to SRAM */  
  movs  r1, #0
 8001188:	2100      	movs	r1, #0
  b  LoopCopyDataInit
 800118a:	e003      	b.n	8001194 <LoopCopyDataInit>

0800118c <CopyDataInit>:

CopyDataInit:
  ldr  r3, =_sidata
 800118c:	4b0e      	ldr	r3, [pc, #56]	; (80011c8 <LoopFillZerobss+0x20>)
  ldr  r3, [r3, r1]
 800118e:	585b      	ldr	r3, [r3, r1]
  str  r3, [r0, r1]
 8001190:	5043      	str	r3, [r0, r1]
  adds  r1, r1, #4
 8001192:	3104      	adds	r1, #4

08001194 <LoopCopyDataInit>:
    
LoopCopyDataInit:
  ldr  r0, =_sdata
 8001194:	480d      	ldr	r0, [pc, #52]	; (80011cc <LoopFillZerobss+0x24>)
  ldr  r3, =_edata
 8001196:	4b0e      	ldr	r3, [pc, #56]	; (80011d0 <LoopFillZerobss+0x28>)
  adds  r2, r0, r1
 8001198:	1842      	adds	r2, r0, r1
  cmp  r2, r3
 800119a:	429a      	cmp	r2, r3
  bcc  CopyDataInit
 800119c:	d3f6      	bcc.n	800118c <CopyDataInit>
  ldr  r2, =_sbss
 800119e:	4a0d      	ldr	r2, [pc, #52]	; (80011d4 <LoopFillZerobss+0x2c>)
  b  LoopFillZerobss
 80011a0:	e002      	b.n	80011a8 <LoopFillZerobss>

080011a2 <FillZerobss>:
/* Zero fill the bss segment. */  
FillZerobss:
  movs  r3, #0
 80011a2:	2300      	movs	r3, #0
  str  r3, [r2], #4
 80011a4:	f842 3b04 	str.w	r3, [r2], #4

080011a8 <LoopFillZerobss>:
    
LoopFillZerobss:
  ldr  r3, = _ebss
 80011a8:	4b0b      	ldr	r3, [pc, #44]	; (80011d8 <LoopFillZerobss+0x30>)
  cmp  r2, r3
 80011aa:	429a      	cmp	r2, r3
  bcc  FillZerobss
 80011ac:	d3f9      	bcc.n	80011a2 <FillZerobss>

/* Call the clock system initialization function.*/
  bl  SystemInit   
 80011ae:	f000 f829 	bl	8001204 <SystemInit>
/* Call static constructors */
/*    bl __libc_init_array */
/* Call the application's entry point.*/
  bl  main
 80011b2:	f000 f89b 	bl	80012ec <main>
  bx  lr    
 80011b6:	4770      	bx	lr
  ldr   sp, =_estack      /* set stack pointer */
 80011b8:	20080000 	.word	0x20080000
  ldr   r3, =_si_liteos_vector_data
 80011bc:	080243ac 	.word	0x080243ac
  ldr   r0, =_s_liteos_vector
 80011c0:	20000000 	.word	0x20000000
  ldr   r3, =_e_liteos_vector
 80011c4:	20000400 	.word	0x20000400
  ldr  r3, =_sidata
 80011c8:	080247ac 	.word	0x080247ac
  ldr  r0, =_sdata
 80011cc:	20000400 	.word	0x20000400
  ldr  r3, =_edata
 80011d0:	20000724 	.word	0x20000724
  ldr  r2, =_sbss
 80011d4:	20000728 	.word	0x20000728
  ldr  r3, = _ebss
 80011d8:	200037ec 	.word	0x200037ec

080011dc <IrqEntryV7M_Handler>:
    .section  .text.IrqEntryV7M_Handler
  .weak  IrqEntryV7M_Handler
  .type  IrqEntryV7M_Handler, %function
IrqEntryV7M_Handler: 

   push  {r0, r1}                      /* R0,R1 */
 80011dc:	b403      	push	{r0, r1}
   and.w  r0, lr, #4                   /* MSP/PSP */
 80011de:	f00e 0004 	and.w	r0, lr, #4
   cmp  r0, #0                         /* EXC_RETUR 2 */
 80011e2:	2800      	cmp	r0, #0
                                       /* 0=MSP*/ 
                                       /* 1=PSP */
   beq SAVE_MSP
 80011e4:	d002      	beq.n	80011ec <SAVE_MSP>

080011e6 <SAVE_PSP>:

SAVE_PSP:     
   mrs  r0, psp                       /* PSPR0 */
 80011e6:	f3ef 8009 	mrs	r0, PSP
   b SAVE_END 
 80011ea:	e001      	b.n	80011f0 <SAVE_END>

080011ec <SAVE_MSP>:

SAVE_MSP:                             /* ISR MSP */
   mrs  r0, msp                       /* MSPR0 */
 80011ec:	f3ef 8008 	mrs	r0, MSP

080011f0 <SAVE_END>:

SAVE_END:  
   ldr r0, [r0,#24]                   /* R0+4*6 => PC */
 80011f0:	6980      	ldr	r0, [r0, #24]
   ldr  r1, =g_interrupt_pc           /* g_interrupt_pc R1 */
 80011f2:	4902      	ldr	r1, [pc, #8]	; (80011fc <SAVE_END+0xc>)
   str  r0, [r1]                      /* PC g_interrupt_pc */
 80011f4:	6008      	str	r0, [r1, #0]
   pop  {r0,r1}                       /* RO,R1 */
 80011f6:	bc03      	pop	{r0, r1}
  
   b IrqEntryV7M
 80011f8:	f00e bb08 	b.w	800f80c <IrqEntryV7M>
   ldr  r1, =g_interrupt_pc           /* g_interrupt_pc R1 */
 80011fc:	20003764 	.word	0x20003764

08001200 <ADC_IRQHandler>:
 * @retval None       
*/
    .section  .text.Default_Handler,"ax",%progbits
Default_Handler:
Infinite_Loop:
  b  Infinite_Loop
 8001200:	e7fe      	b.n	8001200 <ADC_IRQHandler>
	...

08001204 <SystemInit>:
  *         SystemFrequency variable.
  * @param  None
  * @retval None
  */
void SystemInit(void)
{
 8001204:	b480      	push	{r7}
 8001206:	af00      	add	r7, sp, #0
  /* FPU settings ------------------------------------------------------------*/
  #if (__FPU_PRESENT == 1) && (__FPU_USED == 1)
    SCB->CPACR |= ((3UL << 10*2)|(3UL << 11*2));  /* set CP10 and CP11 Full Access */
 8001208:	4b15      	ldr	r3, [pc, #84]	; (8001260 <SystemInit+0x5c>)
 800120a:	f8d3 3088 	ldr.w	r3, [r3, #136]	; 0x88
 800120e:	4a14      	ldr	r2, [pc, #80]	; (8001260 <SystemInit+0x5c>)
 8001210:	f443 0370 	orr.w	r3, r3, #15728640	; 0xf00000
 8001214:	f8c2 3088 	str.w	r3, [r2, #136]	; 0x88
  #endif
  /* Reset the RCC clock configuration to the default reset state ------------*/
  /* Set HSION bit */
  RCC->CR |= (uint32_t)0x00000001;
 8001218:	4b12      	ldr	r3, [pc, #72]	; (8001264 <SystemInit+0x60>)
 800121a:	681b      	ldr	r3, [r3, #0]
 800121c:	4a11      	ldr	r2, [pc, #68]	; (8001264 <SystemInit+0x60>)
 800121e:	f043 0301 	orr.w	r3, r3, #1
 8001222:	6013      	str	r3, [r2, #0]

  /* Reset CFGR register */
  RCC->CFGR = 0x00000000;
 8001224:	4b0f      	ldr	r3, [pc, #60]	; (8001264 <SystemInit+0x60>)
 8001226:	2200      	movs	r2, #0
 8001228:	609a      	str	r2, [r3, #8]

  /* Reset HSEON, CSSON and PLLON bits */
  RCC->CR &= (uint32_t)0xFEF6FFFF;
 800122a:	4b0e      	ldr	r3, [pc, #56]	; (8001264 <SystemInit+0x60>)
 800122c:	681a      	ldr	r2, [r3, #0]
 800122e:	490d      	ldr	r1, [pc, #52]	; (8001264 <SystemInit+0x60>)
 8001230:	4b0d      	ldr	r3, [pc, #52]	; (8001268 <SystemInit+0x64>)
 8001232:	4013      	ands	r3, r2
 8001234:	600b      	str	r3, [r1, #0]

  /* Reset PLLCFGR register */
  RCC->PLLCFGR = 0x24003010;
 8001236:	4b0b      	ldr	r3, [pc, #44]	; (8001264 <SystemInit+0x60>)
 8001238:	4a0c      	ldr	r2, [pc, #48]	; (800126c <SystemInit+0x68>)
 800123a:	605a      	str	r2, [r3, #4]

  /* Reset HSEBYP bit */
  RCC->CR &= (uint32_t)0xFFFBFFFF;
 800123c:	4b09      	ldr	r3, [pc, #36]	; (8001264 <SystemInit+0x60>)
 800123e:	681b      	ldr	r3, [r3, #0]
 8001240:	4a08      	ldr	r2, [pc, #32]	; (8001264 <SystemInit+0x60>)
 8001242:	f423 2380 	bic.w	r3, r3, #262144	; 0x40000
 8001246:	6013      	str	r3, [r2, #0]

  /* Disable all interrupts */
  RCC->CIR = 0x00000000;
 8001248:	4b06      	ldr	r3, [pc, #24]	; (8001264 <SystemInit+0x60>)
 800124a:	2200      	movs	r2, #0
 800124c:	60da      	str	r2, [r3, #12]

  /* Configure the Vector Table location add offset address ------------------*/
#ifdef VECT_TAB_SRAM
  SCB->VTOR = RAMDTCM_BASE | VECT_TAB_OFFSET; /* Vector Table Relocation in Internal SRAM */
#else
  SCB->VTOR = FLASH_BASE | VECT_TAB_OFFSET; /* Vector Table Relocation in Internal FLASH */
 800124e:	4b04      	ldr	r3, [pc, #16]	; (8001260 <SystemInit+0x5c>)
 8001250:	f04f 6200 	mov.w	r2, #134217728	; 0x8000000
 8001254:	609a      	str	r2, [r3, #8]
#endif
}
 8001256:	bf00      	nop
 8001258:	46bd      	mov	sp, r7
 800125a:	f85d 7b04 	ldr.w	r7, [sp], #4
 800125e:	4770      	bx	lr
 8001260:	e000ed00 	.word	0xe000ed00
 8001264:	40023800 	.word	0x40023800
 8001268:	fef6ffff 	.word	0xfef6ffff
 800126c:	24003010 	.word	0x24003010

08001270 <ArchCurrTaskSet>:
{
    return g_runTask;
}

STATIC INLINE VOID ArchCurrTaskSet(VOID *val)
{
 8001270:	b480      	push	{r7}
 8001272:	b083      	sub	sp, #12
 8001274:	af00      	add	r7, sp, #0
 8001276:	6078      	str	r0, [r7, #4]
    g_runTask = val;
 8001278:	4a04      	ldr	r2, [pc, #16]	; (800128c <ArchCurrTaskSet+0x1c>)
 800127a:	687b      	ldr	r3, [r7, #4]
 800127c:	6013      	str	r3, [r2, #0]
}
 800127e:	bf00      	nop
 8001280:	370c      	adds	r7, #12
 8001282:	46bd      	mov	sp, r7
 8001284:	f85d 7b04 	ldr.w	r7, [sp], #4
 8001288:	4770      	bx	lr
 800128a:	bf00      	nop
 800128c:	200033bc 	.word	0x200033bc

08001290 <OsCurrTaskSet>:
{
    return (LosTaskCB *)ArchCurrTaskGet();
}

STATIC INLINE VOID OsCurrTaskSet(LosTaskCB *task)
{
 8001290:	b580      	push	{r7, lr}
 8001292:	b082      	sub	sp, #8
 8001294:	af00      	add	r7, sp, #0
 8001296:	6078      	str	r0, [r7, #4]
    ArchCurrTaskSet(task);
 8001298:	6878      	ldr	r0, [r7, #4]
 800129a:	f7ff ffe9 	bl	8001270 <ArchCurrTaskSet>
}
 800129e:	bf00      	nop
 80012a0:	3708      	adds	r7, #8
 80012a2:	46bd      	mov	sp, r7
 80012a4:	bd80      	pop	{r7, pc}
	...

080012a8 <BoardConfig>:
/* USER CODE BEGIN 0 */
// uint32_t pbuff[(32*1024*1024)/4] __attribute__((at(0xD0000000)));
/* USER CODE END 0 */

VOID BoardConfig(VOID)
{
 80012a8:	b480      	push	{r7}
 80012aa:	af00      	add	r7, sp, #0
    g_sys_mem_addr_end = __LOS_HEAP_ADDR_END__;
 80012ac:	4b04      	ldr	r3, [pc, #16]	; (80012c0 <BoardConfig+0x18>)
 80012ae:	681b      	ldr	r3, [r3, #0]
 80012b0:	4a04      	ldr	r2, [pc, #16]	; (80012c4 <BoardConfig+0x1c>)
 80012b2:	6013      	str	r3, [r2, #0]
}
 80012b4:	bf00      	nop
 80012b6:	46bd      	mov	sp, r7
 80012b8:	f85d 7b04 	ldr.w	r7, [sp], #4
 80012bc:	4770      	bx	lr
 80012be:	bf00      	nop
 80012c0:	080001f4 	.word	0x080001f4
 80012c4:	20000478 	.word	0x20000478

080012c8 <HardwareInit>:

INT32 HardwareInit(VOID)
{
 80012c8:	b580      	push	{r7, lr}
 80012ca:	af00      	add	r7, sp, #0
    (VOID)HAL_Init();
 80012cc:	f00a fa74 	bl	800b7b8 <HAL_Init>
    SystemClock_Config();
 80012d0:	f000 fd66 	bl	8001da0 <SystemClock_Config>
    TimInit();
 80012d4:	f000 fb1e 	bl	8001914 <TimInit>
    MX_GPIO_Init();
 80012d8:	f000 f836 	bl	8001348 <MX_GPIO_Init>
    MX_USART1_UART_Init();
 80012dc:	f000 fbc4 	bl	8001a68 <MX_USART1_UART_Init>
    MX_FMC_Init();   
 80012e0:	f000 f91e 	bl	8001520 <MX_FMC_Init>
    return 0;
 80012e4:	2300      	movs	r3, #0
}
 80012e6:	4618      	mov	r0, r3
 80012e8:	bd80      	pop	{r7, pc}
	...

080012ec <main>:
/**
  * @brief  The application entry point.
  * @retval int
  */
INT32 main (VOID)
{
 80012ec:	b580      	push	{r7, lr}
 80012ee:	b082      	sub	sp, #8
 80012f0:	af00      	add	r7, sp, #0
#ifdef __GNUC__
    ArchStackGuardInit();
 80012f2:	f014 faaf 	bl	8015854 <ArchStackGuardInit>
#endif
    OsSetMainTask();
 80012f6:	f00a f8a5 	bl	800b444 <OsSetMainTask>
    OsCurrTaskSet(OsGetMainTask());
 80012fa:	f00a f893 	bl	800b424 <OsGetMainTask>
 80012fe:	4603      	mov	r3, r0
 8001300:	4618      	mov	r0, r3
 8001302:	f7ff ffc5 	bl	8001290 <OsCurrTaskSet>

    BoardConfig();
 8001306:	f7ff ffcf 	bl	80012a8 <BoardConfig>
    (VOID)HardwareInit();
 800130a:	f7ff ffdd 	bl	80012c8 <HardwareInit>

    PRINT_RELEASE("\n********Hello Huawei LiteOS********\n"
 800130e:	4b0a      	ldr	r3, [pc, #40]	; (8001338 <main+0x4c>)
 8001310:	4a0a      	ldr	r2, [pc, #40]	; (800133c <main+0x50>)
 8001312:	490b      	ldr	r1, [pc, #44]	; (8001340 <main+0x54>)
 8001314:	480b      	ldr	r0, [pc, #44]	; (8001344 <main+0x58>)
 8001316:	f003 f9d9 	bl	80046cc <dprintf>
                  "\nLiteOS Kernel Version : %s\n"
                  "build date : %s %s\n\n"
                  "**********************************\n",
                  HW_LITEOS_KERNEL_VERSION_STRING, __DATE__, __TIME__);

    UINT32 ret = OsMain();
 800131a:	f00a f99d 	bl	800b658 <OsMain>
 800131e:	6078      	str	r0, [r7, #4]
    if (ret != LOS_OK) {
 8001320:	687b      	ldr	r3, [r7, #4]
 8001322:	2b00      	cmp	r3, #0
 8001324:	d001      	beq.n	800132a <main+0x3e>
        return LOS_NOK;
 8001326:	2301      	movs	r3, #1
 8001328:	e002      	b.n	8001330 <main+0x44>
    }

    OsStart();
 800132a:	f00a f8e1 	bl	800b4f0 <OsStart>

    return LOS_OK;
 800132e:	2300      	movs	r3, #0
 8001330:	4618      	mov	r0, r3
 8001332:	3708      	adds	r7, #8
 8001334:	46bd      	mov	sp, r7
 8001336:	bd80      	pop	{r7, pc}
 8001338:	0801fda4 	.word	0x0801fda4
 800133c:	0801fdb0 	.word	0x0801fdb0
 8001340:	0801fdbc 	.word	0x0801fdbc
 8001344:	0801fdc4 	.word	0x0801fdc4

08001348 <MX_GPIO_Init>:
        * Output
        * EVENT_OUT
        * EXTI
*/
void MX_GPIO_Init(void)
{
 8001348:	b580      	push	{r7, lr}
 800134a:	b090      	sub	sp, #64	; 0x40
 800134c:	af00      	add	r7, sp, #0
 800134e:	4b69      	ldr	r3, [pc, #420]	; (80014f4 <MX_GPIO_Init+0x1ac>)
 8001350:	681b      	ldr	r3, [r3, #0]
 8001352:	63fb      	str	r3, [r7, #60]	; 0x3c
 8001354:	f04f 0300 	mov.w	r3, #0

  GPIO_InitTypeDef GPIO_InitStruct = {0};
 8001358:	f107 0328 	add.w	r3, r7, #40	; 0x28
 800135c:	2200      	movs	r2, #0
 800135e:	601a      	str	r2, [r3, #0]
 8001360:	605a      	str	r2, [r3, #4]
 8001362:	609a      	str	r2, [r3, #8]
 8001364:	60da      	str	r2, [r3, #12]
 8001366:	611a      	str	r2, [r3, #16]

  /* GPIO Ports Clock Enable */
  __HAL_RCC_GPIOF_CLK_ENABLE();
 8001368:	4b63      	ldr	r3, [pc, #396]	; (80014f8 <MX_GPIO_Init+0x1b0>)
 800136a:	6b1b      	ldr	r3, [r3, #48]	; 0x30
 800136c:	4a62      	ldr	r2, [pc, #392]	; (80014f8 <MX_GPIO_Init+0x1b0>)
 800136e:	f043 0320 	orr.w	r3, r3, #32
 8001372:	6313      	str	r3, [r2, #48]	; 0x30
 8001374:	4b60      	ldr	r3, [pc, #384]	; (80014f8 <MX_GPIO_Init+0x1b0>)
 8001376:	6b1b      	ldr	r3, [r3, #48]	; 0x30
 8001378:	f003 0320 	and.w	r3, r3, #32
 800137c:	607b      	str	r3, [r7, #4]
 800137e:	687b      	ldr	r3, [r7, #4]
  __HAL_RCC_GPIOH_CLK_ENABLE();
 8001380:	4b5d      	ldr	r3, [pc, #372]	; (80014f8 <MX_GPIO_Init+0x1b0>)
 8001382:	6b1b      	ldr	r3, [r3, #48]	; 0x30
 8001384:	4a5c      	ldr	r2, [pc, #368]	; (80014f8 <MX_GPIO_Init+0x1b0>)
 8001386:	f043 0380 	orr.w	r3, r3, #128	; 0x80
 800138a:	6313      	str	r3, [r2, #48]	; 0x30
 800138c:	4b5a      	ldr	r3, [pc, #360]	; (80014f8 <MX_GPIO_Init+0x1b0>)
 800138e:	6b1b      	ldr	r3, [r3, #48]	; 0x30
 8001390:	f003 0380 	and.w	r3, r3, #128	; 0x80
 8001394:	60bb      	str	r3, [r7, #8]
 8001396:	68bb      	ldr	r3, [r7, #8]
  __HAL_RCC_GPIOC_CLK_ENABLE();
 8001398:	4b57      	ldr	r3, [pc, #348]	; (80014f8 <MX_GPIO_Init+0x1b0>)
 800139a:	6b1b      	ldr	r3, [r3, #48]	; 0x30
 800139c:	4a56      	ldr	r2, [pc, #344]	; (80014f8 <MX_GPIO_Init+0x1b0>)
 800139e:	f043 0304 	orr.w	r3, r3, #4
 80013a2:	6313      	str	r3, [r2, #48]	; 0x30
 80013a4:	4b54      	ldr	r3, [pc, #336]	; (80014f8 <MX_GPIO_Init+0x1b0>)
 80013a6:	6b1b      	ldr	r3, [r3, #48]	; 0x30
 80013a8:	f003 0304 	and.w	r3, r3, #4
 80013ac:	60fb      	str	r3, [r7, #12]
 80013ae:	68fb      	ldr	r3, [r7, #12]
  __HAL_RCC_GPIOA_CLK_ENABLE();
 80013b0:	4b51      	ldr	r3, [pc, #324]	; (80014f8 <MX_GPIO_Init+0x1b0>)
 80013b2:	6b1b      	ldr	r3, [r3, #48]	; 0x30
 80013b4:	4a50      	ldr	r2, [pc, #320]	; (80014f8 <MX_GPIO_Init+0x1b0>)
 80013b6:	f043 0301 	orr.w	r3, r3, #1
 80013ba:	6313      	str	r3, [r2, #48]	; 0x30
 80013bc:	4b4e      	ldr	r3, [pc, #312]	; (80014f8 <MX_GPIO_Init+0x1b0>)
 80013be:	6b1b      	ldr	r3, [r3, #48]	; 0x30
 80013c0:	f003 0301 	and.w	r3, r3, #1
 80013c4:	613b      	str	r3, [r7, #16]
 80013c6:	693b      	ldr	r3, [r7, #16]
  __HAL_RCC_GPIOG_CLK_ENABLE();
 80013c8:	4b4b      	ldr	r3, [pc, #300]	; (80014f8 <MX_GPIO_Init+0x1b0>)
 80013ca:	6b1b      	ldr	r3, [r3, #48]	; 0x30
 80013cc:	4a4a      	ldr	r2, [pc, #296]	; (80014f8 <MX_GPIO_Init+0x1b0>)
 80013ce:	f043 0340 	orr.w	r3, r3, #64	; 0x40
 80013d2:	6313      	str	r3, [r2, #48]	; 0x30
 80013d4:	4b48      	ldr	r3, [pc, #288]	; (80014f8 <MX_GPIO_Init+0x1b0>)
 80013d6:	6b1b      	ldr	r3, [r3, #48]	; 0x30
 80013d8:	f003 0340 	and.w	r3, r3, #64	; 0x40
 80013dc:	617b      	str	r3, [r7, #20]
 80013de:	697b      	ldr	r3, [r7, #20]
  __HAL_RCC_GPIOE_CLK_ENABLE();
 80013e0:	4b45      	ldr	r3, [pc, #276]	; (80014f8 <MX_GPIO_Init+0x1b0>)
 80013e2:	6b1b      	ldr	r3, [r3, #48]	; 0x30
 80013e4:	4a44      	ldr	r2, [pc, #272]	; (80014f8 <MX_GPIO_Init+0x1b0>)
 80013e6:	f043 0310 	orr.w	r3, r3, #16
 80013ea:	6313      	str	r3, [r2, #48]	; 0x30
 80013ec:	4b42      	ldr	r3, [pc, #264]	; (80014f8 <MX_GPIO_Init+0x1b0>)
 80013ee:	6b1b      	ldr	r3, [r3, #48]	; 0x30
 80013f0:	f003 0310 	and.w	r3, r3, #16
 80013f4:	61bb      	str	r3, [r7, #24]
 80013f6:	69bb      	ldr	r3, [r7, #24]
  __HAL_RCC_GPIOD_CLK_ENABLE();
 80013f8:	4b3f      	ldr	r3, [pc, #252]	; (80014f8 <MX_GPIO_Init+0x1b0>)
 80013fa:	6b1b      	ldr	r3, [r3, #48]	; 0x30
 80013fc:	4a3e      	ldr	r2, [pc, #248]	; (80014f8 <MX_GPIO_Init+0x1b0>)
 80013fe:	f043 0308 	orr.w	r3, r3, #8
 8001402:	6313      	str	r3, [r2, #48]	; 0x30
 8001404:	4b3c      	ldr	r3, [pc, #240]	; (80014f8 <MX_GPIO_Init+0x1b0>)
 8001406:	6b1b      	ldr	r3, [r3, #48]	; 0x30
 8001408:	f003 0308 	and.w	r3, r3, #8
 800140c:	61fb      	str	r3, [r7, #28]
 800140e:	69fb      	ldr	r3, [r7, #28]
  __HAL_RCC_GPIOB_CLK_ENABLE();
 8001410:	4b39      	ldr	r3, [pc, #228]	; (80014f8 <MX_GPIO_Init+0x1b0>)
 8001412:	6b1b      	ldr	r3, [r3, #48]	; 0x30
 8001414:	4a38      	ldr	r2, [pc, #224]	; (80014f8 <MX_GPIO_Init+0x1b0>)
 8001416:	f043 0302 	orr.w	r3, r3, #2
 800141a:	6313      	str	r3, [r2, #48]	; 0x30
 800141c:	4b36      	ldr	r3, [pc, #216]	; (80014f8 <MX_GPIO_Init+0x1b0>)
 800141e:	6b1b      	ldr	r3, [r3, #48]	; 0x30
 8001420:	f003 0302 	and.w	r3, r3, #2
 8001424:	623b      	str	r3, [r7, #32]
 8001426:	6a3b      	ldr	r3, [r7, #32]
  __HAL_RCC_GPIOI_CLK_ENABLE();
 8001428:	4b33      	ldr	r3, [pc, #204]	; (80014f8 <MX_GPIO_Init+0x1b0>)
 800142a:	6b1b      	ldr	r3, [r3, #48]	; 0x30
 800142c:	4a32      	ldr	r2, [pc, #200]	; (80014f8 <MX_GPIO_Init+0x1b0>)
 800142e:	f443 7380 	orr.w	r3, r3, #256	; 0x100
 8001432:	6313      	str	r3, [r2, #48]	; 0x30
 8001434:	4b30      	ldr	r3, [pc, #192]	; (80014f8 <MX_GPIO_Init+0x1b0>)
 8001436:	6b1b      	ldr	r3, [r3, #48]	; 0x30
 8001438:	f403 7380 	and.w	r3, r3, #256	; 0x100
 800143c:	627b      	str	r3, [r7, #36]	; 0x24
 800143e:	6a7b      	ldr	r3, [r7, #36]	; 0x24

  /*Configure GPIO pin Output Level */
  HAL_GPIO_WritePin(GPIOA, GPIO_PIN_4, GPIO_PIN_RESET);
 8001440:	2200      	movs	r2, #0
 8001442:	2110      	movs	r1, #16
 8001444:	482d      	ldr	r0, [pc, #180]	; (80014fc <MX_GPIO_Init+0x1b4>)
 8001446:	f00c fb11 	bl	800da6c <HAL_GPIO_WritePin>

  /*Configure GPIO pin Output Level */
  HAL_GPIO_WritePin(GPIOH, GPIO_PIN_10|GPIO_PIN_11|GPIO_PIN_12, GPIO_PIN_RESET);
 800144a:	2200      	movs	r2, #0
 800144c:	f44f 51e0 	mov.w	r1, #7168	; 0x1c00
 8001450:	482b      	ldr	r0, [pc, #172]	; (8001500 <MX_GPIO_Init+0x1b8>)
 8001452:	f00c fb0b 	bl	800da6c <HAL_GPIO_WritePin>

  /*Configure GPIO pin Output Level */
  HAL_GPIO_WritePin(GPIOB, GPIO_PIN_6|GPIO_PIN_7, GPIO_PIN_RESET);
 8001456:	2200      	movs	r2, #0
 8001458:	21c0      	movs	r1, #192	; 0xc0
 800145a:	482a      	ldr	r0, [pc, #168]	; (8001504 <MX_GPIO_Init+0x1bc>)
 800145c:	f00c fb06 	bl	800da6c <HAL_GPIO_WritePin>

  /*Configure GPIO pin Output Level */
  HAL_GPIO_WritePin(GPIOI, GPIO_PIN_7, GPIO_PIN_RESET);
 8001460:	2200      	movs	r2, #0
 8001462:	2180      	movs	r1, #128	; 0x80
 8001464:	4828      	ldr	r0, [pc, #160]	; (8001508 <MX_GPIO_Init+0x1c0>)
 8001466:	f00c fb01 	bl	800da6c <HAL_GPIO_WritePin>

  /*Configure GPIO pin : PA4 */
  GPIO_InitStruct.Pin = GPIO_PIN_4;
 800146a:	2310      	movs	r3, #16
 800146c:	62bb      	str	r3, [r7, #40]	; 0x28
  GPIO_InitStruct.Mode = GPIO_MODE_OUTPUT_PP;
 800146e:	2301      	movs	r3, #1
 8001470:	62fb      	str	r3, [r7, #44]	; 0x2c
  GPIO_InitStruct.Pull = GPIO_NOPULL;
 8001472:	2300      	movs	r3, #0
 8001474:	633b      	str	r3, [r7, #48]	; 0x30
  GPIO_InitStruct.Speed = GPIO_SPEED_FREQ_LOW;
 8001476:	2300      	movs	r3, #0
 8001478:	637b      	str	r3, [r7, #52]	; 0x34
  HAL_GPIO_Init(GPIOA, &GPIO_InitStruct);
 800147a:	f107 0328 	add.w	r3, r7, #40	; 0x28
 800147e:	4619      	mov	r1, r3
 8001480:	481e      	ldr	r0, [pc, #120]	; (80014fc <MX_GPIO_Init+0x1b4>)
 8001482:	f00c f947 	bl	800d714 <HAL_GPIO_Init>

  /*Configure GPIO pins : PH10 PH11 PH12 */
  GPIO_InitStruct.Pin = GPIO_PIN_10|GPIO_PIN_11|GPIO_PIN_12;
 8001486:	f44f 53e0 	mov.w	r3, #7168	; 0x1c00
 800148a:	62bb      	str	r3, [r7, #40]	; 0x28
  GPIO_InitStruct.Mode = GPIO_MODE_OUTPUT_PP;
 800148c:	2301      	movs	r3, #1
 800148e:	62fb      	str	r3, [r7, #44]	; 0x2c
  GPIO_InitStruct.Pull = GPIO_NOPULL;
 8001490:	2300      	movs	r3, #0
 8001492:	633b      	str	r3, [r7, #48]	; 0x30
  GPIO_InitStruct.Speed = GPIO_SPEED_FREQ_LOW;
 8001494:	2300      	movs	r3, #0
 8001496:	637b      	str	r3, [r7, #52]	; 0x34
  HAL_GPIO_Init(GPIOH, &GPIO_InitStruct);
 8001498:	f107 0328 	add.w	r3, r7, #40	; 0x28
 800149c:	4619      	mov	r1, r3
 800149e:	4818      	ldr	r0, [pc, #96]	; (8001500 <MX_GPIO_Init+0x1b8>)
 80014a0:	f00c f938 	bl	800d714 <HAL_GPIO_Init>

  /*Configure GPIO pins : PB6 PB7 */
  GPIO_InitStruct.Pin = GPIO_PIN_6|GPIO_PIN_7;
 80014a4:	23c0      	movs	r3, #192	; 0xc0
 80014a6:	62bb      	str	r3, [r7, #40]	; 0x28
  GPIO_InitStruct.Mode = GPIO_MODE_OUTPUT_OD;
 80014a8:	2311      	movs	r3, #17
 80014aa:	62fb      	str	r3, [r7, #44]	; 0x2c
  GPIO_InitStruct.Pull = GPIO_NOPULL;
 80014ac:	2300      	movs	r3, #0
 80014ae:	633b      	str	r3, [r7, #48]	; 0x30
  GPIO_InitStruct.Speed = GPIO_SPEED_FREQ_LOW;
 80014b0:	2300      	movs	r3, #0
 80014b2:	637b      	str	r3, [r7, #52]	; 0x34
  HAL_GPIO_Init(GPIOB, &GPIO_InitStruct);
 80014b4:	f107 0328 	add.w	r3, r7, #40	; 0x28
 80014b8:	4619      	mov	r1, r3
 80014ba:	4812      	ldr	r0, [pc, #72]	; (8001504 <MX_GPIO_Init+0x1bc>)
 80014bc:	f00c f92a 	bl	800d714 <HAL_GPIO_Init>

  /*Configure GPIO pin : PI7 */
  GPIO_InitStruct.Pin = GPIO_PIN_7;
 80014c0:	2380      	movs	r3, #128	; 0x80
 80014c2:	62bb      	str	r3, [r7, #40]	; 0x28
  GPIO_InitStruct.Mode = GPIO_MODE_OUTPUT_PP;
 80014c4:	2301      	movs	r3, #1
 80014c6:	62fb      	str	r3, [r7, #44]	; 0x2c
  GPIO_InitStruct.Pull = GPIO_NOPULL;
 80014c8:	2300      	movs	r3, #0
 80014ca:	633b      	str	r3, [r7, #48]	; 0x30
  GPIO_InitStruct.Speed = GPIO_SPEED_FREQ_LOW;
 80014cc:	2300      	movs	r3, #0
 80014ce:	637b      	str	r3, [r7, #52]	; 0x34
  HAL_GPIO_Init(GPIOI, &GPIO_InitStruct);
 80014d0:	f107 0328 	add.w	r3, r7, #40	; 0x28
 80014d4:	4619      	mov	r1, r3
 80014d6:	480c      	ldr	r0, [pc, #48]	; (8001508 <MX_GPIO_Init+0x1c0>)
 80014d8:	f00c f91c 	bl	800d714 <HAL_GPIO_Init>

}
 80014dc:	bf00      	nop
 80014de:	4b05      	ldr	r3, [pc, #20]	; (80014f4 <MX_GPIO_Init+0x1ac>)
 80014e0:	681a      	ldr	r2, [r3, #0]
 80014e2:	6bfb      	ldr	r3, [r7, #60]	; 0x3c
 80014e4:	405a      	eors	r2, r3
 80014e6:	d001      	beq.n	80014ec <MX_GPIO_Init+0x1a4>
 80014e8:	f002 ff7e 	bl	80043e8 <__stack_chk_fail>
 80014ec:	3740      	adds	r7, #64	; 0x40
 80014ee:	46bd      	mov	sp, r7
 80014f0:	bd80      	pop	{r7, pc}
 80014f2:	bf00      	nop
 80014f4:	0801fe40 	.word	0x0801fe40
 80014f8:	40023800 	.word	0x40023800
 80014fc:	40020000 	.word	0x40020000
 8001500:	40021c00 	.word	0x40021c00
 8001504:	40020400 	.word	0x40020400
 8001508:	40022000 	.word	0x40022000

0800150c <Error_Handler>:
uint32_t HAL_GetTick(void);
void SystemClock_Config(void);
void _Error_Handler(char const *, int);

STATIC INLINE VOID Error_Handler(VOID)
{
 800150c:	b580      	push	{r7, lr}
 800150e:	af00      	add	r7, sp, #0
    _Error_Handler(__FILE__, __LINE__);
 8001510:	213b      	movs	r1, #59	; 0x3b
 8001512:	4802      	ldr	r0, [pc, #8]	; (800151c <Error_Handler+0x10>)
 8001514:	f000 fc3d 	bl	8001d92 <_Error_Handler>
}
 8001518:	bf00      	nop
 800151a:	bd80      	pop	{r7, pc}
 800151c:	0801fe44 	.word	0x0801fe44

08001520 <MX_FMC_Init>:

SDRAM_HandleTypeDef hsdram2;

/* FMC initialization function */
void MX_FMC_Init(void)
{
 8001520:	b580      	push	{r7, lr}
 8001522:	b08c      	sub	sp, #48	; 0x30
 8001524:	af00      	add	r7, sp, #0
 8001526:	4b4d      	ldr	r3, [pc, #308]	; (800165c <MX_FMC_Init+0x13c>)
 8001528:	681b      	ldr	r3, [r3, #0]
 800152a:	62fb      	str	r3, [r7, #44]	; 0x2c
 800152c:	f04f 0300 	mov.w	r3, #0
  /* USER CODE BEGIN FMC_Init 0 */

  /* USER CODE END FMC_Init 0 */

  FMC_SDRAM_TimingTypeDef SdramTiming = {0};
 8001530:	f107 0310 	add.w	r3, r7, #16
 8001534:	2200      	movs	r2, #0
 8001536:	601a      	str	r2, [r3, #0]
 8001538:	605a      	str	r2, [r3, #4]
 800153a:	609a      	str	r2, [r3, #8]
 800153c:	60da      	str	r2, [r3, #12]
 800153e:	611a      	str	r2, [r3, #16]
 8001540:	615a      	str	r2, [r3, #20]
 8001542:	619a      	str	r2, [r3, #24]

  /* USER CODE END FMC_Init 1 */

  /** Perform the SDRAM2 memory initialization sequence
  */
  hsdram2.Instance = FMC_SDRAM_DEVICE;
 8001544:	4b46      	ldr	r3, [pc, #280]	; (8001660 <MX_FMC_Init+0x140>)
 8001546:	4a47      	ldr	r2, [pc, #284]	; (8001664 <MX_FMC_Init+0x144>)
 8001548:	601a      	str	r2, [r3, #0]
  /* hsdram2.Init */
  hsdram2.Init.SDBank = FMC_SDRAM_BANK2;
 800154a:	4b45      	ldr	r3, [pc, #276]	; (8001660 <MX_FMC_Init+0x140>)
 800154c:	2201      	movs	r2, #1
 800154e:	605a      	str	r2, [r3, #4]
  hsdram2.Init.ColumnBitsNumber = FMC_SDRAM_COLUMN_BITS_NUM_9;
 8001550:	4b43      	ldr	r3, [pc, #268]	; (8001660 <MX_FMC_Init+0x140>)
 8001552:	2201      	movs	r2, #1
 8001554:	609a      	str	r2, [r3, #8]
  hsdram2.Init.RowBitsNumber = FMC_SDRAM_ROW_BITS_NUM_13;
 8001556:	4b42      	ldr	r3, [pc, #264]	; (8001660 <MX_FMC_Init+0x140>)
 8001558:	2208      	movs	r2, #8
 800155a:	60da      	str	r2, [r3, #12]
  hsdram2.Init.MemoryDataWidth = FMC_SDRAM_MEM_BUS_WIDTH_16;
 800155c:	4b40      	ldr	r3, [pc, #256]	; (8001660 <MX_FMC_Init+0x140>)
 800155e:	2210      	movs	r2, #16
 8001560:	611a      	str	r2, [r3, #16]
  hsdram2.Init.InternalBankNumber = FMC_SDRAM_INTERN_BANKS_NUM_4;
 8001562:	4b3f      	ldr	r3, [pc, #252]	; (8001660 <MX_FMC_Init+0x140>)
 8001564:	2240      	movs	r2, #64	; 0x40
 8001566:	615a      	str	r2, [r3, #20]
  hsdram2.Init.CASLatency = FMC_SDRAM_CAS_LATENCY_3;
 8001568:	4b3d      	ldr	r3, [pc, #244]	; (8001660 <MX_FMC_Init+0x140>)
 800156a:	f44f 72c0 	mov.w	r2, #384	; 0x180
 800156e:	619a      	str	r2, [r3, #24]
  hsdram2.Init.WriteProtection = FMC_SDRAM_WRITE_PROTECTION_DISABLE;
 8001570:	4b3b      	ldr	r3, [pc, #236]	; (8001660 <MX_FMC_Init+0x140>)
 8001572:	2200      	movs	r2, #0
 8001574:	61da      	str	r2, [r3, #28]
  hsdram2.Init.SDClockPeriod = FMC_SDRAM_CLOCK_PERIOD_2;
 8001576:	4b3a      	ldr	r3, [pc, #232]	; (8001660 <MX_FMC_Init+0x140>)
 8001578:	f44f 6200 	mov.w	r2, #2048	; 0x800
 800157c:	621a      	str	r2, [r3, #32]
  hsdram2.Init.ReadBurst = FMC_SDRAM_RBURST_DISABLE;
 800157e:	4b38      	ldr	r3, [pc, #224]	; (8001660 <MX_FMC_Init+0x140>)
 8001580:	2200      	movs	r2, #0
 8001582:	625a      	str	r2, [r3, #36]	; 0x24
  hsdram2.Init.ReadPipeDelay = FMC_SDRAM_RPIPE_DELAY_0;
 8001584:	4b36      	ldr	r3, [pc, #216]	; (8001660 <MX_FMC_Init+0x140>)
 8001586:	2200      	movs	r2, #0
 8001588:	629a      	str	r2, [r3, #40]	; 0x28
  /* SdramTiming */
  SdramTiming.LoadToActiveDelay = 2;
 800158a:	2302      	movs	r3, #2
 800158c:	613b      	str	r3, [r7, #16]
  SdramTiming.ExitSelfRefreshDelay = 9;
 800158e:	2309      	movs	r3, #9
 8001590:	617b      	str	r3, [r7, #20]
  SdramTiming.SelfRefreshTime = 6;
 8001592:	2306      	movs	r3, #6
 8001594:	61bb      	str	r3, [r7, #24]
  SdramTiming.RowCycleDelay = 8;
 8001596:	2308      	movs	r3, #8
 8001598:	61fb      	str	r3, [r7, #28]
  SdramTiming.WriteRecoveryTime = 3;
 800159a:	2303      	movs	r3, #3
 800159c:	623b      	str	r3, [r7, #32]
  SdramTiming.RPDelay = 3;
 800159e:	2303      	movs	r3, #3
 80015a0:	627b      	str	r3, [r7, #36]	; 0x24
  SdramTiming.RCDDelay = 3;
 80015a2:	2303      	movs	r3, #3
 80015a4:	62bb      	str	r3, [r7, #40]	; 0x28

  if (HAL_SDRAM_Init(&hsdram2, &SdramTiming) != HAL_OK)
 80015a6:	f107 0310 	add.w	r3, r7, #16
 80015aa:	4619      	mov	r1, r3
 80015ac:	482c      	ldr	r0, [pc, #176]	; (8001660 <MX_FMC_Init+0x140>)
 80015ae:	f00b ff2b 	bl	800d408 <HAL_SDRAM_Init>
 80015b2:	4603      	mov	r3, r0
 80015b4:	2b00      	cmp	r3, #0
 80015b6:	d001      	beq.n	80015bc <MX_FMC_Init+0x9c>
  {
    Error_Handler( );
 80015b8:	f7ff ffa8 	bl	800150c <Error_Handler>
  }

  /* USER CODE BEGIN FMC_Init 2 */
// SDRAM
  FMC_SDRAM_CommandTypeDef Command;
  Command.CommandMode = FMC_SDRAM_CMD_CLK_ENABLE;
 80015bc:	2301      	movs	r3, #1
 80015be:	603b      	str	r3, [r7, #0]
  Command.CommandTarget = FMC_SDRAM_CMD_TARGET_BANK2;
 80015c0:	2308      	movs	r3, #8
 80015c2:	607b      	str	r3, [r7, #4]
  Command.AutoRefreshNumber = 1;
 80015c4:	2301      	movs	r3, #1
 80015c6:	60bb      	str	r3, [r7, #8]
  Command.ModeRegisterDefinition = 0;
 80015c8:	2300      	movs	r3, #0
 80015ca:	60fb      	str	r3, [r7, #12]
  
  HAL_SDRAM_SendCommand(&hsdram2,&Command,0xFFFF);
 80015cc:	463b      	mov	r3, r7
 80015ce:	f64f 72ff 	movw	r2, #65535	; 0xffff
 80015d2:	4619      	mov	r1, r3
 80015d4:	4822      	ldr	r0, [pc, #136]	; (8001660 <MX_FMC_Init+0x140>)
 80015d6:	f00b ff46 	bl	800d466 <HAL_SDRAM_SendCommand>
  
  // 200us
  // SDRAM_delay(1);
  HAL_Delay(1);
 80015da:	2001      	movs	r0, #1
 80015dc:	f00a f92a 	bl	800b834 <HAL_Delay>
  
  // Banks
  Command.CommandMode = FMC_SDRAM_CMD_PALL;
 80015e0:	2302      	movs	r3, #2
 80015e2:	603b      	str	r3, [r7, #0]
  Command.CommandTarget = FMC_SDRAM_CMD_TARGET_BANK2;
 80015e4:	2308      	movs	r3, #8
 80015e6:	607b      	str	r3, [r7, #4]
  Command.AutoRefreshNumber = 1;
 80015e8:	2301      	movs	r3, #1
 80015ea:	60bb      	str	r3, [r7, #8]
  Command.ModeRegisterDefinition = 0;
 80015ec:	2300      	movs	r3, #0
 80015ee:	60fb      	str	r3, [r7, #12]
  
  HAL_SDRAM_SendCommand(&hsdram2,&Command,0xFFFF);
 80015f0:	463b      	mov	r3, r7
 80015f2:	f64f 72ff 	movw	r2, #65535	; 0xffff
 80015f6:	4619      	mov	r1, r3
 80015f8:	4819      	ldr	r0, [pc, #100]	; (8001660 <MX_FMC_Init+0x140>)
 80015fa:	f00b ff34 	bl	800d466 <HAL_SDRAM_SendCommand>
  
  // 8
  Command.CommandMode = FMC_SDRAM_CMD_AUTOREFRESH_MODE;
 80015fe:	2303      	movs	r3, #3
 8001600:	603b      	str	r3, [r7, #0]
  Command.CommandTarget = FMC_SDRAM_CMD_TARGET_BANK2;
 8001602:	2308      	movs	r3, #8
 8001604:	607b      	str	r3, [r7, #4]
  Command.AutoRefreshNumber = 8;
 8001606:	2308      	movs	r3, #8
 8001608:	60bb      	str	r3, [r7, #8]
  Command.ModeRegisterDefinition = 0;
 800160a:	2300      	movs	r3, #0
 800160c:	60fb      	str	r3, [r7, #12]
  
  HAL_SDRAM_SendCommand(&hsdram2,&Command,0xFFFF);
 800160e:	463b      	mov	r3, r7
 8001610:	f64f 72ff 	movw	r2, #65535	; 0xffff
 8001614:	4619      	mov	r1, r3
 8001616:	4812      	ldr	r0, [pc, #72]	; (8001660 <MX_FMC_Init+0x140>)
 8001618:	f00b ff25 	bl	800d466 <HAL_SDRAM_SendCommand>
  
  // SDRAM
  Command.CommandMode = FMC_SDRAM_CMD_LOAD_MODE;
 800161c:	2304      	movs	r3, #4
 800161e:	603b      	str	r3, [r7, #0]
  Command.CommandTarget = FMC_SDRAM_CMD_TARGET_BANK2;
 8001620:	2308      	movs	r3, #8
 8001622:	607b      	str	r3, [r7, #4]
  Command.AutoRefreshNumber = 1;
 8001624:	2301      	movs	r3, #1
 8001626:	60bb      	str	r3, [r7, #8]
  Command.ModeRegisterDefinition = 0x230;
 8001628:	f44f 730c 	mov.w	r3, #560	; 0x230
 800162c:	60fb      	str	r3, [r7, #12]
  
  HAL_SDRAM_SendCommand(&hsdram2,&Command,0xFFFF);
 800162e:	463b      	mov	r3, r7
 8001630:	f64f 72ff 	movw	r2, #65535	; 0xffff
 8001634:	4619      	mov	r1, r3
 8001636:	480a      	ldr	r0, [pc, #40]	; (8001660 <MX_FMC_Init+0x140>)
 8001638:	f00b ff15 	bl	800d466 <HAL_SDRAM_SendCommand>
  
  // STM32FMCSDRAM
  HAL_SDRAM_ProgramRefreshRate( &hsdram2, 824);
 800163c:	f44f 714e 	mov.w	r1, #824	; 0x338
 8001640:	4807      	ldr	r0, [pc, #28]	; (8001660 <MX_FMC_Init+0x140>)
 8001642:	f00b ff41 	bl	800d4c8 <HAL_SDRAM_ProgramRefreshRate>

#if DEBUG_SDRAM_CHECK
  SDRAM_Test();
#endif  
  /* USER CODE END FMC_Init 2 */
}
 8001646:	bf00      	nop
 8001648:	4b04      	ldr	r3, [pc, #16]	; (800165c <MX_FMC_Init+0x13c>)
 800164a:	681a      	ldr	r2, [r3, #0]
 800164c:	6afb      	ldr	r3, [r7, #44]	; 0x2c
 800164e:	405a      	eors	r2, r3
 8001650:	d001      	beq.n	8001656 <MX_FMC_Init+0x136>
 8001652:	f002 fec9 	bl	80043e8 <__stack_chk_fail>
 8001656:	3730      	adds	r7, #48	; 0x30
 8001658:	46bd      	mov	sp, r7
 800165a:	bd80      	pop	{r7, pc}
 800165c:	0801fea0 	.word	0x0801fea0
 8001660:	20003498 	.word	0x20003498
 8001664:	a0000140 	.word	0xa0000140

08001668 <HAL_FMC_MspInit>:

static uint32_t FMC_Initialized = 0;

static void HAL_FMC_MspInit(void){
 8001668:	b580      	push	{r7, lr}
 800166a:	b088      	sub	sp, #32
 800166c:	af00      	add	r7, sp, #0
 800166e:	4b48      	ldr	r3, [pc, #288]	; (8001790 <HAL_FMC_MspInit+0x128>)
 8001670:	681b      	ldr	r3, [r3, #0]
 8001672:	61fb      	str	r3, [r7, #28]
 8001674:	f04f 0300 	mov.w	r3, #0
  /* USER CODE BEGIN FMC_MspInit 0 */

  /* USER CODE END FMC_MspInit 0 */
  GPIO_InitTypeDef GPIO_InitStruct = {0};
 8001678:	f107 0308 	add.w	r3, r7, #8
 800167c:	2200      	movs	r2, #0
 800167e:	601a      	str	r2, [r3, #0]
 8001680:	605a      	str	r2, [r3, #4]
 8001682:	609a      	str	r2, [r3, #8]
 8001684:	60da      	str	r2, [r3, #12]
 8001686:	611a      	str	r2, [r3, #16]
  if (FMC_Initialized) {
 8001688:	4b42      	ldr	r3, [pc, #264]	; (8001794 <HAL_FMC_MspInit+0x12c>)
 800168a:	681b      	ldr	r3, [r3, #0]
 800168c:	2b00      	cmp	r3, #0
 800168e:	d173      	bne.n	8001778 <HAL_FMC_MspInit+0x110>
    return;
  }
  FMC_Initialized = 1;
 8001690:	4b40      	ldr	r3, [pc, #256]	; (8001794 <HAL_FMC_MspInit+0x12c>)
 8001692:	2201      	movs	r2, #1
 8001694:	601a      	str	r2, [r3, #0]

  /* Peripheral clock enable */
  __HAL_RCC_FMC_CLK_ENABLE();
 8001696:	4b40      	ldr	r3, [pc, #256]	; (8001798 <HAL_FMC_MspInit+0x130>)
 8001698:	6b9b      	ldr	r3, [r3, #56]	; 0x38
 800169a:	4a3f      	ldr	r2, [pc, #252]	; (8001798 <HAL_FMC_MspInit+0x130>)
 800169c:	f043 0301 	orr.w	r3, r3, #1
 80016a0:	6393      	str	r3, [r2, #56]	; 0x38
 80016a2:	4b3d      	ldr	r3, [pc, #244]	; (8001798 <HAL_FMC_MspInit+0x130>)
 80016a4:	6b9b      	ldr	r3, [r3, #56]	; 0x38
 80016a6:	f003 0301 	and.w	r3, r3, #1
 80016aa:	607b      	str	r3, [r7, #4]
 80016ac:	687b      	ldr	r3, [r7, #4]
  PG15   ------> FMC_SDNCAS
  PE0   ------> FMC_NBL0
  PE1   ------> FMC_NBL1
  */
  /* GPIO_InitStruct */
  GPIO_InitStruct.Pin = GPIO_PIN_0|GPIO_PIN_1|GPIO_PIN_2|GPIO_PIN_3
 80016ae:	f64f 033f 	movw	r3, #63551	; 0xf83f
 80016b2:	60bb      	str	r3, [r7, #8]
                          |GPIO_PIN_4|GPIO_PIN_5|GPIO_PIN_11|GPIO_PIN_12
                          |GPIO_PIN_13|GPIO_PIN_14|GPIO_PIN_15;
  GPIO_InitStruct.Mode = GPIO_MODE_AF_PP;
 80016b4:	2302      	movs	r3, #2
 80016b6:	60fb      	str	r3, [r7, #12]
  GPIO_InitStruct.Pull = GPIO_NOPULL;
 80016b8:	2300      	movs	r3, #0
 80016ba:	613b      	str	r3, [r7, #16]
  GPIO_InitStruct.Speed = GPIO_SPEED_FREQ_VERY_HIGH;
 80016bc:	2303      	movs	r3, #3
 80016be:	617b      	str	r3, [r7, #20]
  GPIO_InitStruct.Alternate = GPIO_AF12_FMC;
 80016c0:	230c      	movs	r3, #12
 80016c2:	61bb      	str	r3, [r7, #24]

  HAL_GPIO_Init(GPIOF, &GPIO_InitStruct);
 80016c4:	f107 0308 	add.w	r3, r7, #8
 80016c8:	4619      	mov	r1, r3
 80016ca:	4834      	ldr	r0, [pc, #208]	; (800179c <HAL_FMC_MspInit+0x134>)
 80016cc:	f00c f822 	bl	800d714 <HAL_GPIO_Init>

  /* GPIO_InitStruct */
  GPIO_InitStruct.Pin = GPIO_PIN_0;
 80016d0:	2301      	movs	r3, #1
 80016d2:	60bb      	str	r3, [r7, #8]
  GPIO_InitStruct.Mode = GPIO_MODE_AF_PP;
 80016d4:	2302      	movs	r3, #2
 80016d6:	60fb      	str	r3, [r7, #12]
  GPIO_InitStruct.Pull = GPIO_NOPULL;
 80016d8:	2300      	movs	r3, #0
 80016da:	613b      	str	r3, [r7, #16]
  GPIO_InitStruct.Speed = GPIO_SPEED_FREQ_VERY_HIGH;
 80016dc:	2303      	movs	r3, #3
 80016de:	617b      	str	r3, [r7, #20]
  GPIO_InitStruct.Alternate = GPIO_AF12_FMC;
 80016e0:	230c      	movs	r3, #12
 80016e2:	61bb      	str	r3, [r7, #24]

  HAL_GPIO_Init(GPIOC, &GPIO_InitStruct);
 80016e4:	f107 0308 	add.w	r3, r7, #8
 80016e8:	4619      	mov	r1, r3
 80016ea:	482d      	ldr	r0, [pc, #180]	; (80017a0 <HAL_FMC_MspInit+0x138>)
 80016ec:	f00c f812 	bl	800d714 <HAL_GPIO_Init>

  /* GPIO_InitStruct */
  GPIO_InitStruct.Pin = GPIO_PIN_0|GPIO_PIN_1|GPIO_PIN_2|GPIO_PIN_4
 80016f0:	f248 1337 	movw	r3, #33079	; 0x8137
 80016f4:	60bb      	str	r3, [r7, #8]
                          |GPIO_PIN_5|GPIO_PIN_8|GPIO_PIN_15;
  GPIO_InitStruct.Mode = GPIO_MODE_AF_PP;
 80016f6:	2302      	movs	r3, #2
 80016f8:	60fb      	str	r3, [r7, #12]
  GPIO_InitStruct.Pull = GPIO_NOPULL;
 80016fa:	2300      	movs	r3, #0
 80016fc:	613b      	str	r3, [r7, #16]
  GPIO_InitStruct.Speed = GPIO_SPEED_FREQ_VERY_HIGH;
 80016fe:	2303      	movs	r3, #3
 8001700:	617b      	str	r3, [r7, #20]
  GPIO_InitStruct.Alternate = GPIO_AF12_FMC;
 8001702:	230c      	movs	r3, #12
 8001704:	61bb      	str	r3, [r7, #24]

  HAL_GPIO_Init(GPIOG, &GPIO_InitStruct);
 8001706:	f107 0308 	add.w	r3, r7, #8
 800170a:	4619      	mov	r1, r3
 800170c:	4825      	ldr	r0, [pc, #148]	; (80017a4 <HAL_FMC_MspInit+0x13c>)
 800170e:	f00c f801 	bl	800d714 <HAL_GPIO_Init>

  /* GPIO_InitStruct */
  GPIO_InitStruct.Pin = GPIO_PIN_7|GPIO_PIN_8|GPIO_PIN_9|GPIO_PIN_10
 8001712:	f64f 7383 	movw	r3, #65411	; 0xff83
 8001716:	60bb      	str	r3, [r7, #8]
                          |GPIO_PIN_11|GPIO_PIN_12|GPIO_PIN_13|GPIO_PIN_14
                          |GPIO_PIN_15|GPIO_PIN_0|GPIO_PIN_1;
  GPIO_InitStruct.Mode = GPIO_MODE_AF_PP;
 8001718:	2302      	movs	r3, #2
 800171a:	60fb      	str	r3, [r7, #12]
  GPIO_InitStruct.Pull = GPIO_NOPULL;
 800171c:	2300      	movs	r3, #0
 800171e:	613b      	str	r3, [r7, #16]
  GPIO_InitStruct.Speed = GPIO_SPEED_FREQ_VERY_HIGH;
 8001720:	2303      	movs	r3, #3
 8001722:	617b      	str	r3, [r7, #20]
  GPIO_InitStruct.Alternate = GPIO_AF12_FMC;
 8001724:	230c      	movs	r3, #12
 8001726:	61bb      	str	r3, [r7, #24]

  HAL_GPIO_Init(GPIOE, &GPIO_InitStruct);
 8001728:	f107 0308 	add.w	r3, r7, #8
 800172c:	4619      	mov	r1, r3
 800172e:	481e      	ldr	r0, [pc, #120]	; (80017a8 <HAL_FMC_MspInit+0x140>)
 8001730:	f00b fff0 	bl	800d714 <HAL_GPIO_Init>

  /* GPIO_InitStruct */
  GPIO_InitStruct.Pin = GPIO_PIN_6|GPIO_PIN_7;
 8001734:	23c0      	movs	r3, #192	; 0xc0
 8001736:	60bb      	str	r3, [r7, #8]
  GPIO_InitStruct.Mode = GPIO_MODE_AF_PP;
 8001738:	2302      	movs	r3, #2
 800173a:	60fb      	str	r3, [r7, #12]
  GPIO_InitStruct.Pull = GPIO_NOPULL;
 800173c:	2300      	movs	r3, #0
 800173e:	613b      	str	r3, [r7, #16]
  GPIO_InitStruct.Speed = GPIO_SPEED_FREQ_VERY_HIGH;
 8001740:	2303      	movs	r3, #3
 8001742:	617b      	str	r3, [r7, #20]
  GPIO_InitStruct.Alternate = GPIO_AF12_FMC;
 8001744:	230c      	movs	r3, #12
 8001746:	61bb      	str	r3, [r7, #24]

  HAL_GPIO_Init(GPIOH, &GPIO_InitStruct);
 8001748:	f107 0308 	add.w	r3, r7, #8
 800174c:	4619      	mov	r1, r3
 800174e:	4817      	ldr	r0, [pc, #92]	; (80017ac <HAL_FMC_MspInit+0x144>)
 8001750:	f00b ffe0 	bl	800d714 <HAL_GPIO_Init>

  /* GPIO_InitStruct */
  GPIO_InitStruct.Pin = GPIO_PIN_8|GPIO_PIN_9|GPIO_PIN_10|GPIO_PIN_14
 8001754:	f24c 7303 	movw	r3, #50947	; 0xc703
 8001758:	60bb      	str	r3, [r7, #8]
                          |GPIO_PIN_15|GPIO_PIN_0|GPIO_PIN_1;
  GPIO_InitStruct.Mode = GPIO_MODE_AF_PP;
 800175a:	2302      	movs	r3, #2
 800175c:	60fb      	str	r3, [r7, #12]
  GPIO_InitStruct.Pull = GPIO_NOPULL;
 800175e:	2300      	movs	r3, #0
 8001760:	613b      	str	r3, [r7, #16]
  GPIO_InitStruct.Speed = GPIO_SPEED_FREQ_VERY_HIGH;
 8001762:	2303      	movs	r3, #3
 8001764:	617b      	str	r3, [r7, #20]
  GPIO_InitStruct.Alternate = GPIO_AF12_FMC;
 8001766:	230c      	movs	r3, #12
 8001768:	61bb      	str	r3, [r7, #24]

  HAL_GPIO_Init(GPIOD, &GPIO_InitStruct);
 800176a:	f107 0308 	add.w	r3, r7, #8
 800176e:	4619      	mov	r1, r3
 8001770:	480f      	ldr	r0, [pc, #60]	; (80017b0 <HAL_FMC_MspInit+0x148>)
 8001772:	f00b ffcf 	bl	800d714 <HAL_GPIO_Init>
 8001776:	e000      	b.n	800177a <HAL_FMC_MspInit+0x112>
    return;
 8001778:	bf00      	nop

  /* USER CODE BEGIN FMC_MspInit 1 */

  /* USER CODE END FMC_MspInit 1 */
}
 800177a:	4b05      	ldr	r3, [pc, #20]	; (8001790 <HAL_FMC_MspInit+0x128>)
 800177c:	681a      	ldr	r2, [r3, #0]
 800177e:	69fb      	ldr	r3, [r7, #28]
 8001780:	405a      	eors	r2, r3
 8001782:	d001      	beq.n	8001788 <HAL_FMC_MspInit+0x120>
 8001784:	f002 fe30 	bl	80043e8 <__stack_chk_fail>
 8001788:	3720      	adds	r7, #32
 800178a:	46bd      	mov	sp, r7
 800178c:	bd80      	pop	{r7, pc}
 800178e:	bf00      	nop
 8001790:	0801fea4 	.word	0x0801fea4
 8001794:	20000728 	.word	0x20000728
 8001798:	40023800 	.word	0x40023800
 800179c:	40021400 	.word	0x40021400
 80017a0:	40020800 	.word	0x40020800
 80017a4:	40021800 	.word	0x40021800
 80017a8:	40021000 	.word	0x40021000
 80017ac:	40021c00 	.word	0x40021c00
 80017b0:	40020c00 	.word	0x40020c00

080017b4 <HAL_SDRAM_MspInit>:

void HAL_SDRAM_MspInit(SDRAM_HandleTypeDef* sdramHandle){
 80017b4:	b580      	push	{r7, lr}
 80017b6:	b082      	sub	sp, #8
 80017b8:	af00      	add	r7, sp, #0
 80017ba:	6078      	str	r0, [r7, #4]
  /* USER CODE BEGIN SDRAM_MspInit 0 */

  /* USER CODE END SDRAM_MspInit 0 */
  HAL_FMC_MspInit();
 80017bc:	f7ff ff54 	bl	8001668 <HAL_FMC_MspInit>
  /* USER CODE BEGIN SDRAM_MspInit 1 */

  /* USER CODE END SDRAM_MspInit 1 */
}
 80017c0:	bf00      	nop
 80017c2:	3708      	adds	r7, #8
 80017c4:	46bd      	mov	sp, r7
 80017c6:	bd80      	pop	{r7, pc}

080017c8 <Error_Handler>:
{
 80017c8:	b580      	push	{r7, lr}
 80017ca:	af00      	add	r7, sp, #0
    _Error_Handler(__FILE__, __LINE__);
 80017cc:	213b      	movs	r1, #59	; 0x3b
 80017ce:	4802      	ldr	r0, [pc, #8]	; (80017d8 <Error_Handler+0x10>)
 80017d0:	f000 fadf 	bl	8001d92 <_Error_Handler>
}
 80017d4:	bf00      	nop
 80017d6:	bd80      	pop	{r7, pc}
 80017d8:	0801fea8 	.word	0x0801fea8

080017dc <MX_TIM3_Init>:
TIM_HandleTypeDef htim3;

static UINT64 g_tim3_cycleTimes = 0;
/* TIM3 init function */
void MX_TIM3_Init(void)
{
 80017dc:	b580      	push	{r7, lr}
 80017de:	b088      	sub	sp, #32
 80017e0:	af00      	add	r7, sp, #0
 80017e2:	4b29      	ldr	r3, [pc, #164]	; (8001888 <MX_TIM3_Init+0xac>)
 80017e4:	681b      	ldr	r3, [r3, #0]
 80017e6:	61fb      	str	r3, [r7, #28]
 80017e8:	f04f 0300 	mov.w	r3, #0
    TIM_ClockConfigTypeDef sClockSourceConfig = { 0 };
 80017ec:	f107 030c 	add.w	r3, r7, #12
 80017f0:	2200      	movs	r2, #0
 80017f2:	601a      	str	r2, [r3, #0]
 80017f4:	605a      	str	r2, [r3, #4]
 80017f6:	609a      	str	r2, [r3, #8]
 80017f8:	60da      	str	r2, [r3, #12]
    TIM_MasterConfigTypeDef sMasterConfig = { 0 };
 80017fa:	463b      	mov	r3, r7
 80017fc:	2200      	movs	r2, #0
 80017fe:	601a      	str	r2, [r3, #0]
 8001800:	605a      	str	r2, [r3, #4]
 8001802:	609a      	str	r2, [r3, #8]
    /* TIM_Period*/
    //TIMxCLK = 2 * PCLK1  
    //              PCLK1 = HCLK / 4 
    //              => TIMxCLK=HCLK/2=SystemCoreClock/2=108MHz
    //  = TIMxCLK/(TIM_Prescaler+1)=1000000Hz
    htim3.Instance = TIM3;
 8001804:	4b21      	ldr	r3, [pc, #132]	; (800188c <MX_TIM3_Init+0xb0>)
 8001806:	4a22      	ldr	r2, [pc, #136]	; (8001890 <MX_TIM3_Init+0xb4>)
 8001808:	601a      	str	r2, [r3, #0]
    htim3.Init.Prescaler = 108 - 1; // 5400 - 1, Set timer3 prescaler.
 800180a:	4b20      	ldr	r3, [pc, #128]	; (800188c <MX_TIM3_Init+0xb0>)
 800180c:	226b      	movs	r2, #107	; 0x6b
 800180e:	605a      	str	r2, [r3, #4]
    htim3.Init.CounterMode = TIM_COUNTERMODE_UP;
 8001810:	4b1e      	ldr	r3, [pc, #120]	; (800188c <MX_TIM3_Init+0xb0>)
 8001812:	2200      	movs	r2, #0
 8001814:	609a      	str	r2, [r3, #8]
    htim3.Init.Period = 50000 - 1; // 50000 - 1, Set timer3 period.
 8001816:	4b1d      	ldr	r3, [pc, #116]	; (800188c <MX_TIM3_Init+0xb0>)
 8001818:	f24c 324f 	movw	r2, #49999	; 0xc34f
 800181c:	60da      	str	r2, [r3, #12]

    /* Period (50000) / TIMxCLK(10000HZ) = 5s */
    htim3.Init.ClockDivision = TIM_CLOCKDIVISION_DIV1;
 800181e:	4b1b      	ldr	r3, [pc, #108]	; (800188c <MX_TIM3_Init+0xb0>)
 8001820:	2200      	movs	r2, #0
 8001822:	611a      	str	r2, [r3, #16]
    htim3.Init.AutoReloadPreload = TIM_AUTORELOAD_PRELOAD_DISABLE;
 8001824:	4b19      	ldr	r3, [pc, #100]	; (800188c <MX_TIM3_Init+0xb0>)
 8001826:	2200      	movs	r2, #0
 8001828:	619a      	str	r2, [r3, #24]
    if (HAL_TIM_Base_Init(&htim3) != HAL_OK) {
 800182a:	4818      	ldr	r0, [pc, #96]	; (800188c <MX_TIM3_Init+0xb0>)
 800182c:	f00a fc4c 	bl	800c0c8 <HAL_TIM_Base_Init>
 8001830:	4603      	mov	r3, r0
 8001832:	2b00      	cmp	r3, #0
 8001834:	d001      	beq.n	800183a <MX_TIM3_Init+0x5e>
        Error_Handler();
 8001836:	f7ff ffc7 	bl	80017c8 <Error_Handler>
    }
    sClockSourceConfig.ClockSource = TIM_CLOCKSOURCE_INTERNAL;
 800183a:	f44f 5380 	mov.w	r3, #4096	; 0x1000
 800183e:	60fb      	str	r3, [r7, #12]
    if (HAL_TIM_ConfigClockSource(&htim3, &sClockSourceConfig) != HAL_OK) {
 8001840:	f107 030c 	add.w	r3, r7, #12
 8001844:	4619      	mov	r1, r3
 8001846:	4811      	ldr	r0, [pc, #68]	; (800188c <MX_TIM3_Init+0xb0>)
 8001848:	f00a fe12 	bl	800c470 <HAL_TIM_ConfigClockSource>
 800184c:	4603      	mov	r3, r0
 800184e:	2b00      	cmp	r3, #0
 8001850:	d001      	beq.n	8001856 <MX_TIM3_Init+0x7a>
        Error_Handler();
 8001852:	f7ff ffb9 	bl	80017c8 <Error_Handler>
    }
    sMasterConfig.MasterOutputTrigger = TIM_TRGO_RESET;
 8001856:	2300      	movs	r3, #0
 8001858:	603b      	str	r3, [r7, #0]
    sMasterConfig.MasterSlaveMode = TIM_MASTERSLAVEMODE_DISABLE;
 800185a:	2300      	movs	r3, #0
 800185c:	60bb      	str	r3, [r7, #8]
    if (HAL_TIMEx_MasterConfigSynchronization(&htim3, &sMasterConfig) != HAL_OK) {
 800185e:	463b      	mov	r3, r7
 8001860:	4619      	mov	r1, r3
 8001862:	480a      	ldr	r0, [pc, #40]	; (800188c <MX_TIM3_Init+0xb0>)
 8001864:	f00b fd18 	bl	800d298 <HAL_TIMEx_MasterConfigSynchronization>
 8001868:	4603      	mov	r3, r0
 800186a:	2b00      	cmp	r3, #0
 800186c:	d001      	beq.n	8001872 <MX_TIM3_Init+0x96>
        Error_Handler();
 800186e:	f7ff ffab 	bl	80017c8 <Error_Handler>
    }
}
 8001872:	bf00      	nop
 8001874:	4b04      	ldr	r3, [pc, #16]	; (8001888 <MX_TIM3_Init+0xac>)
 8001876:	681a      	ldr	r2, [r3, #0]
 8001878:	69fb      	ldr	r3, [r7, #28]
 800187a:	405a      	eors	r2, r3
 800187c:	d001      	beq.n	8001882 <MX_TIM3_Init+0xa6>
 800187e:	f002 fdb3 	bl	80043e8 <__stack_chk_fail>
 8001882:	3720      	adds	r7, #32
 8001884:	46bd      	mov	sp, r7
 8001886:	bd80      	pop	{r7, pc}
 8001888:	0801ff04 	.word	0x0801ff04
 800188c:	200034d0 	.word	0x200034d0
 8001890:	40000400 	.word	0x40000400

08001894 <HAL_TIM_Base_MspInit>:


void HAL_TIM_Base_MspInit(TIM_HandleTypeDef* tim_baseHandle)
{
 8001894:	b580      	push	{r7, lr}
 8001896:	b084      	sub	sp, #16
 8001898:	af00      	add	r7, sp, #0
 800189a:	6078      	str	r0, [r7, #4]

  if(tim_baseHandle->Instance==TIM3)
 800189c:	687b      	ldr	r3, [r7, #4]
 800189e:	681b      	ldr	r3, [r3, #0]
 80018a0:	4a0d      	ldr	r2, [pc, #52]	; (80018d8 <HAL_TIM_Base_MspInit+0x44>)
 80018a2:	4293      	cmp	r3, r2
 80018a4:	d113      	bne.n	80018ce <HAL_TIM_Base_MspInit+0x3a>
  {
  /* USER CODE BEGIN TIM3_MspInit 0 */

  /* USER CODE END TIM3_MspInit 0 */
    /* TIM3 clock enable */
    __HAL_RCC_TIM3_CLK_ENABLE();
 80018a6:	4b0d      	ldr	r3, [pc, #52]	; (80018dc <HAL_TIM_Base_MspInit+0x48>)
 80018a8:	6c1b      	ldr	r3, [r3, #64]	; 0x40
 80018aa:	4a0c      	ldr	r2, [pc, #48]	; (80018dc <HAL_TIM_Base_MspInit+0x48>)
 80018ac:	f043 0302 	orr.w	r3, r3, #2
 80018b0:	6413      	str	r3, [r2, #64]	; 0x40
 80018b2:	4b0a      	ldr	r3, [pc, #40]	; (80018dc <HAL_TIM_Base_MspInit+0x48>)
 80018b4:	6c1b      	ldr	r3, [r3, #64]	; 0x40
 80018b6:	f003 0302 	and.w	r3, r3, #2
 80018ba:	60fb      	str	r3, [r7, #12]
 80018bc:	68fb      	ldr	r3, [r7, #12]

    /* TIM3 interrupt Init */
    HAL_NVIC_SetPriority(TIM3_IRQn, 0, 3);
 80018be:	2203      	movs	r2, #3
 80018c0:	2100      	movs	r1, #0
 80018c2:	201d      	movs	r0, #29
 80018c4:	f00b fef5 	bl	800d6b2 <HAL_NVIC_SetPriority>
    HAL_NVIC_EnableIRQ(TIM3_IRQn);
 80018c8:	201d      	movs	r0, #29
 80018ca:	f00b ff0b 	bl	800d6e4 <HAL_NVIC_EnableIRQ>
  /* USER CODE BEGIN TIM3_MspInit 1 */

  /* USER CODE END TIM3_MspInit 1 */
  }
}
 80018ce:	bf00      	nop
 80018d0:	3710      	adds	r7, #16
 80018d2:	46bd      	mov	sp, r7
 80018d4:	bd80      	pop	{r7, pc}
 80018d6:	bf00      	nop
 80018d8:	40000400 	.word	0x40000400
 80018dc:	40023800 	.word	0x40023800

080018e0 <TIM3_IRQHandler>:

/* *
 * @brief This function handles TIM3 global interrupt.
 */
void TIM3_IRQHandler(void)
{
 80018e0:	b5b0      	push	{r4, r5, r7, lr}
 80018e2:	af00      	add	r7, sp, #0
    /* USER CODE BEGIN TIM3_IRQn 0 */

    /* USER CODE END TIM3_IRQn 0 */
    // Fire_DEBUG_GPIOB6_TRIGGER(); 
    Fire_DEBUG_GPIOB7(1);
 80018e4:	2001      	movs	r0, #1
 80018e6:	f000 fa2b 	bl	8001d40 <Fire_DEBUG_GPIOB7>
    g_tim3_cycleTimes ++;
 80018ea:	4b08      	ldr	r3, [pc, #32]	; (800190c <TIM3_IRQHandler+0x2c>)
 80018ec:	e9d3 2300 	ldrd	r2, r3, [r3]
 80018f0:	1c54      	adds	r4, r2, #1
 80018f2:	f143 0500 	adc.w	r5, r3, #0
 80018f6:	4b05      	ldr	r3, [pc, #20]	; (800190c <TIM3_IRQHandler+0x2c>)
 80018f8:	e9c3 4500 	strd	r4, r5, [r3]
    HAL_TIM_IRQHandler(&htim3);
 80018fc:	4804      	ldr	r0, [pc, #16]	; (8001910 <TIM3_IRQHandler+0x30>)
 80018fe:	f00a fc97 	bl	800c230 <HAL_TIM_IRQHandler>
    Fire_DEBUG_GPIOB7(0);
 8001902:	2000      	movs	r0, #0
 8001904:	f000 fa1c 	bl	8001d40 <Fire_DEBUG_GPIOB7>
    /* USER CODE BEGIN TIM3_IRQn 1 */

    /* USER CODE END TIM3_IRQn 1 */
}
 8001908:	bf00      	nop
 800190a:	bdb0      	pop	{r4, r5, r7, pc}
 800190c:	20000730 	.word	0x20000730
 8001910:	200034d0 	.word	0x200034d0

08001914 <TimInit>:

/* USER CODE BEGIN 1 */
VOID TimInit(VOID)
{
 8001914:	b580      	push	{r7, lr}
 8001916:	af00      	add	r7, sp, #0
    MX_TIM3_Init();
 8001918:	f7ff ff60 	bl	80017dc <MX_TIM3_Init>
    
    // 
    // (VOID)HAL_TIM_Base_Start_IT(&htim3);
    HAL_TIM_Base_Start(&htim3);
 800191c:	4802      	ldr	r0, [pc, #8]	; (8001928 <TimInit+0x14>)
 800191e:	f00a fc1b 	bl	800c158 <HAL_TIM_Base_Start>
}
 8001922:	bf00      	nop
 8001924:	bd80      	pop	{r7, pc}
 8001926:	bf00      	nop
 8001928:	200034d0 	.word	0x200034d0

0800192c <TimerHwiCreate>:

VOID TimerHwiCreate(VOID)
{
 800192c:	b580      	push	{r7, lr}
 800192e:	b084      	sub	sp, #16
 8001930:	af02      	add	r7, sp, #8
    UINT32 ret;

    ret = LOS_HwiCreate(TIM_IRQ, 0, 0, TIM3_IRQHandler, 0); // 16: cortex-m irq num shift
 8001932:	2300      	movs	r3, #0
 8001934:	9300      	str	r3, [sp, #0]
 8001936:	4b09      	ldr	r3, [pc, #36]	; (800195c <TimerHwiCreate+0x30>)
 8001938:	2200      	movs	r2, #0
 800193a:	2100      	movs	r1, #0
 800193c:	202d      	movs	r0, #45	; 0x2d
 800193e:	f000 fdad 	bl	800249c <LOS_HwiCreate>
 8001942:	6078      	str	r0, [r7, #4]
    if (ret != 0) {
 8001944:	687b      	ldr	r3, [r7, #4]
 8001946:	2b00      	cmp	r3, #0
 8001948:	d004      	beq.n	8001954 <TimerHwiCreate+0x28>
        printf("ret of TIM3 LOS_HwiCreate = %#x\n", ret);
 800194a:	6879      	ldr	r1, [r7, #4]
 800194c:	4804      	ldr	r0, [pc, #16]	; (8001960 <TimerHwiCreate+0x34>)
 800194e:	f00d fe55 	bl	800f5fc <printf>
        return;
 8001952:	bf00      	nop
    }

}
 8001954:	3708      	adds	r7, #8
 8001956:	46bd      	mov	sp, r7
 8001958:	bd80      	pop	{r7, pc}
 800195a:	bf00      	nop
 800195c:	080018e1 	.word	0x080018e1
 8001960:	0801ff08 	.word	0x0801ff08

08001964 <Hal_STM32F767_Get_Timer_CNT>:

/* 2022-04-07 tanzhongqiang  
    CNT 1us 
*/
UINT64 Hal_STM32F767_Get_Timer_CNT(VOID)
{
 8001964:	e92d 03b0 	stmdb	sp!, {r4, r5, r7, r8, r9}
 8001968:	b083      	sub	sp, #12
 800196a:	af00      	add	r7, sp, #0
    static UINT64 bacCycle = 0;
    static UINT64 cycleTimes = 0;
    if (htim3.Instance == NULL) {
 800196c:	4b23      	ldr	r3, [pc, #140]	; (80019fc <Hal_STM32F767_Get_Timer_CNT+0x98>)
 800196e:	681b      	ldr	r3, [r3, #0]
 8001970:	2b00      	cmp	r3, #0
 8001972:	d104      	bne.n	800197e <Hal_STM32F767_Get_Timer_CNT+0x1a>
        return 0;
 8001974:	f04f 0400 	mov.w	r4, #0
 8001978:	f04f 0500 	mov.w	r5, #0
 800197c:	e034      	b.n	80019e8 <Hal_STM32F767_Get_Timer_CNT+0x84>
    }

    UINT64 swCycles = htim3.Instance->CNT;
 800197e:	4b1f      	ldr	r3, [pc, #124]	; (80019fc <Hal_STM32F767_Get_Timer_CNT+0x98>)
 8001980:	681b      	ldr	r3, [r3, #0]
 8001982:	6a5b      	ldr	r3, [r3, #36]	; 0x24
 8001984:	461a      	mov	r2, r3
 8001986:	f04f 0300 	mov.w	r3, #0
 800198a:	e9c7 2300 	strd	r2, r3, [r7]

    if (swCycles < bacCycle) {
 800198e:	4b1c      	ldr	r3, [pc, #112]	; (8001a00 <Hal_STM32F767_Get_Timer_CNT+0x9c>)
 8001990:	e9d3 2300 	ldrd	r2, r3, [r3]
 8001994:	e9d7 8900 	ldrd	r8, r9, [r7]
 8001998:	4599      	cmp	r9, r3
 800199a:	bf08      	it	eq
 800199c:	4590      	cmpeq	r8, r2
 800199e:	d208      	bcs.n	80019b2 <Hal_STM32F767_Get_Timer_CNT+0x4e>
        cycleTimes++;
 80019a0:	4b18      	ldr	r3, [pc, #96]	; (8001a04 <Hal_STM32F767_Get_Timer_CNT+0xa0>)
 80019a2:	e9d3 2300 	ldrd	r2, r3, [r3]
 80019a6:	1c50      	adds	r0, r2, #1
 80019a8:	f143 0100 	adc.w	r1, r3, #0
 80019ac:	4b15      	ldr	r3, [pc, #84]	; (8001a04 <Hal_STM32F767_Get_Timer_CNT+0xa0>)
 80019ae:	e9c3 0100 	strd	r0, r1, [r3]
    }
    bacCycle = swCycles;
 80019b2:	4913      	ldr	r1, [pc, #76]	; (8001a00 <Hal_STM32F767_Get_Timer_CNT+0x9c>)
 80019b4:	e9d7 2300 	ldrd	r2, r3, [r7]
 80019b8:	e9c1 2300 	strd	r2, r3, [r1]

    return (swCycles + cycleTimes * TIMER3_RELOAD);
 80019bc:	4b11      	ldr	r3, [pc, #68]	; (8001a04 <Hal_STM32F767_Get_Timer_CNT+0xa0>)
 80019be:	e9d3 2300 	ldrd	r2, r3, [r3]
 80019c2:	f24c 3150 	movw	r1, #50000	; 0xc350
 80019c6:	fb01 f003 	mul.w	r0, r1, r3
 80019ca:	2100      	movs	r1, #0
 80019cc:	fb01 f102 	mul.w	r1, r1, r2
 80019d0:	4401      	add	r1, r0
 80019d2:	f24c 3050 	movw	r0, #50000	; 0xc350
 80019d6:	fba2 2300 	umull	r2, r3, r2, r0
 80019da:	4419      	add	r1, r3
 80019dc:	460b      	mov	r3, r1
 80019de:	e9d7 0100 	ldrd	r0, r1, [r7]
 80019e2:	1814      	adds	r4, r2, r0
 80019e4:	eb43 0501 	adc.w	r5, r3, r1
 80019e8:	4622      	mov	r2, r4
 80019ea:	462b      	mov	r3, r5
}
 80019ec:	4610      	mov	r0, r2
 80019ee:	4619      	mov	r1, r3
 80019f0:	370c      	adds	r7, #12
 80019f2:	46bd      	mov	sp, r7
 80019f4:	e8bd 03b0 	ldmia.w	sp!, {r4, r5, r7, r8, r9}
 80019f8:	4770      	bx	lr
 80019fa:	bf00      	nop
 80019fc:	200034d0 	.word	0x200034d0
 8001a00:	20000738 	.word	0x20000738
 8001a04:	20000740 	.word	0x20000740

08001a08 <GetTimerCycles>:

/* 
    2022-04-07 tanzhongqiang SYSCLK cycles YSCLK 216MHZ.
*/
UINT64 GetTimerCycles(VOID)
{
 8001a08:	b5b0      	push	{r4, r5, r7, lr}
 8001a0a:	af00      	add	r7, sp, #0
#4  0x08013f36 in OsCpupIrqStart () at los_cpup.c:520
#5  0x08001f62 in OsIntHandle (hwiNum=45, hwiForm=0x20002490 <g_hwiForm+720>) at los_hwi.c:123
#6  0x0800f178 in IrqEntryV7M () at arm_nvic.c:100
* */

    return Hal_STM32F767_Get_Timer_CNT() * 216;// * 1000000;
 8001a0c:	f7ff ffaa 	bl	8001964 <Hal_STM32F767_Get_Timer_CNT>
 8001a10:	4602      	mov	r2, r0
 8001a12:	460b      	mov	r3, r1
 8001a14:	1894      	adds	r4, r2, r2
 8001a16:	eb43 0503 	adc.w	r5, r3, r3
 8001a1a:	4622      	mov	r2, r4
 8001a1c:	462b      	mov	r3, r5
 8001a1e:	1812      	adds	r2, r2, r0
 8001a20:	eb41 0303 	adc.w	r3, r1, r3
 8001a24:	f04f 0000 	mov.w	r0, #0
 8001a28:	f04f 0100 	mov.w	r1, #0
 8001a2c:	00d9      	lsls	r1, r3, #3
 8001a2e:	ea41 7152 	orr.w	r1, r1, r2, lsr #29
 8001a32:	00d0      	lsls	r0, r2, #3
 8001a34:	1812      	adds	r2, r2, r0
 8001a36:	eb41 0303 	adc.w	r3, r1, r3
 8001a3a:	f04f 0000 	mov.w	r0, #0
 8001a3e:	f04f 0100 	mov.w	r1, #0
 8001a42:	00d9      	lsls	r1, r3, #3
 8001a44:	ea41 7152 	orr.w	r1, r1, r2, lsr #29
 8001a48:	00d0      	lsls	r0, r2, #3
 8001a4a:	4602      	mov	r2, r0
 8001a4c:	460b      	mov	r3, r1
}
 8001a4e:	4610      	mov	r0, r2
 8001a50:	4619      	mov	r1, r3
 8001a52:	bdb0      	pop	{r4, r5, r7, pc}

08001a54 <Error_Handler>:
{
 8001a54:	b580      	push	{r7, lr}
 8001a56:	af00      	add	r7, sp, #0
    _Error_Handler(__FILE__, __LINE__);
 8001a58:	213b      	movs	r1, #59	; 0x3b
 8001a5a:	4802      	ldr	r0, [pc, #8]	; (8001a64 <Error_Handler+0x10>)
 8001a5c:	f000 f999 	bl	8001d92 <_Error_Handler>
}
 8001a60:	bf00      	nop
 8001a62:	bd80      	pop	{r7, pc}
 8001a64:	0801ff2c 	.word	0x0801ff2c

08001a68 <MX_USART1_UART_Init>:
UART_HandleTypeDef huart1;

/* USART3 init function */

void MX_USART1_UART_Init(void)
{
 8001a68:	b580      	push	{r7, lr}
 8001a6a:	af00      	add	r7, sp, #0
  huart1.Instance = USART1;
 8001a6c:	4b14      	ldr	r3, [pc, #80]	; (8001ac0 <MX_USART1_UART_Init+0x58>)
 8001a6e:	4a15      	ldr	r2, [pc, #84]	; (8001ac4 <MX_USART1_UART_Init+0x5c>)
 8001a70:	601a      	str	r2, [r3, #0]
  huart1.Init.BaudRate = 115200;
 8001a72:	4b13      	ldr	r3, [pc, #76]	; (8001ac0 <MX_USART1_UART_Init+0x58>)
 8001a74:	f44f 32e1 	mov.w	r2, #115200	; 0x1c200
 8001a78:	605a      	str	r2, [r3, #4]
  huart1.Init.WordLength = UART_WORDLENGTH_8B;
 8001a7a:	4b11      	ldr	r3, [pc, #68]	; (8001ac0 <MX_USART1_UART_Init+0x58>)
 8001a7c:	2200      	movs	r2, #0
 8001a7e:	609a      	str	r2, [r3, #8]
  huart1.Init.StopBits = UART_STOPBITS_1;
 8001a80:	4b0f      	ldr	r3, [pc, #60]	; (8001ac0 <MX_USART1_UART_Init+0x58>)
 8001a82:	2200      	movs	r2, #0
 8001a84:	60da      	str	r2, [r3, #12]
  huart1.Init.Parity = UART_PARITY_NONE;
 8001a86:	4b0e      	ldr	r3, [pc, #56]	; (8001ac0 <MX_USART1_UART_Init+0x58>)
 8001a88:	2200      	movs	r2, #0
 8001a8a:	611a      	str	r2, [r3, #16]
  huart1.Init.Mode = UART_MODE_TX_RX;
 8001a8c:	4b0c      	ldr	r3, [pc, #48]	; (8001ac0 <MX_USART1_UART_Init+0x58>)
 8001a8e:	220c      	movs	r2, #12
 8001a90:	615a      	str	r2, [r3, #20]
  huart1.Init.HwFlowCtl = UART_HWCONTROL_NONE;
 8001a92:	4b0b      	ldr	r3, [pc, #44]	; (8001ac0 <MX_USART1_UART_Init+0x58>)
 8001a94:	2200      	movs	r2, #0
 8001a96:	619a      	str	r2, [r3, #24]
  huart1.Init.OverSampling = UART_OVERSAMPLING_16;
 8001a98:	4b09      	ldr	r3, [pc, #36]	; (8001ac0 <MX_USART1_UART_Init+0x58>)
 8001a9a:	2200      	movs	r2, #0
 8001a9c:	61da      	str	r2, [r3, #28]
  huart1.Init.OneBitSampling = UART_ONE_BIT_SAMPLE_DISABLE;
 8001a9e:	4b08      	ldr	r3, [pc, #32]	; (8001ac0 <MX_USART1_UART_Init+0x58>)
 8001aa0:	2200      	movs	r2, #0
 8001aa2:	621a      	str	r2, [r3, #32]
  huart1.AdvancedInit.AdvFeatureInit = UART_ADVFEATURE_NO_INIT;
 8001aa4:	4b06      	ldr	r3, [pc, #24]	; (8001ac0 <MX_USART1_UART_Init+0x58>)
 8001aa6:	2200      	movs	r2, #0
 8001aa8:	625a      	str	r2, [r3, #36]	; 0x24
  if (HAL_UART_Init(&huart1) != HAL_OK)
 8001aaa:	4805      	ldr	r0, [pc, #20]	; (8001ac0 <MX_USART1_UART_Init+0x58>)
 8001aac:	f00c f810 	bl	800dad0 <HAL_UART_Init>
 8001ab0:	4603      	mov	r3, r0
 8001ab2:	2b00      	cmp	r3, #0
 8001ab4:	d001      	beq.n	8001aba <MX_USART1_UART_Init+0x52>
  {
    Error_Handler();
 8001ab6:	f7ff ffcd 	bl	8001a54 <Error_Handler>
  }
}
 8001aba:	bf00      	nop
 8001abc:	bd80      	pop	{r7, pc}
 8001abe:	bf00      	nop
 8001ac0:	20003540 	.word	0x20003540
 8001ac4:	40011000 	.word	0x40011000

08001ac8 <HAL_UART_MspInit>:

void HAL_UART_MspInit(UART_HandleTypeDef* uartHandle)
{
 8001ac8:	b580      	push	{r7, lr}
 8001aca:	b08a      	sub	sp, #40	; 0x28
 8001acc:	af00      	add	r7, sp, #0
 8001ace:	6078      	str	r0, [r7, #4]
 8001ad0:	4b22      	ldr	r3, [pc, #136]	; (8001b5c <HAL_UART_MspInit+0x94>)
 8001ad2:	681b      	ldr	r3, [r3, #0]
 8001ad4:	627b      	str	r3, [r7, #36]	; 0x24
 8001ad6:	f04f 0300 	mov.w	r3, #0

  GPIO_InitTypeDef GPIO_InitStructure = {0};
 8001ada:	f107 0310 	add.w	r3, r7, #16
 8001ade:	2200      	movs	r2, #0
 8001ae0:	601a      	str	r2, [r3, #0]
 8001ae2:	605a      	str	r2, [r3, #4]
 8001ae4:	609a      	str	r2, [r3, #8]
 8001ae6:	60da      	str	r2, [r3, #12]
 8001ae8:	611a      	str	r2, [r3, #16]
  if(uartHandle->Instance==USART1)
 8001aea:	687b      	ldr	r3, [r7, #4]
 8001aec:	681b      	ldr	r3, [r3, #0]
 8001aee:	4a1c      	ldr	r2, [pc, #112]	; (8001b60 <HAL_UART_MspInit+0x98>)
 8001af0:	4293      	cmp	r3, r2
 8001af2:	d128      	bne.n	8001b46 <HAL_UART_MspInit+0x7e>
  {
     /* Enable GPIOA clock */
      __HAL_RCC_GPIOA_CLK_ENABLE();
 8001af4:	4b1b      	ldr	r3, [pc, #108]	; (8001b64 <HAL_UART_MspInit+0x9c>)
 8001af6:	6b1b      	ldr	r3, [r3, #48]	; 0x30
 8001af8:	4a1a      	ldr	r2, [pc, #104]	; (8001b64 <HAL_UART_MspInit+0x9c>)
 8001afa:	f043 0301 	orr.w	r3, r3, #1
 8001afe:	6313      	str	r3, [r2, #48]	; 0x30
 8001b00:	4b18      	ldr	r3, [pc, #96]	; (8001b64 <HAL_UART_MspInit+0x9c>)
 8001b02:	6b1b      	ldr	r3, [r3, #48]	; 0x30
 8001b04:	f003 0301 	and.w	r3, r3, #1
 8001b08:	60bb      	str	r3, [r7, #8]
 8001b0a:	68bb      	ldr	r3, [r7, #8]
      /* Enable USART1 clock */
      __HAL_RCC_USART1_CLK_ENABLE();
 8001b0c:	4b15      	ldr	r3, [pc, #84]	; (8001b64 <HAL_UART_MspInit+0x9c>)
 8001b0e:	6c5b      	ldr	r3, [r3, #68]	; 0x44
 8001b10:	4a14      	ldr	r2, [pc, #80]	; (8001b64 <HAL_UART_MspInit+0x9c>)
 8001b12:	f043 0310 	orr.w	r3, r3, #16
 8001b16:	6453      	str	r3, [r2, #68]	; 0x44
 8001b18:	4b12      	ldr	r3, [pc, #72]	; (8001b64 <HAL_UART_MspInit+0x9c>)
 8001b1a:	6c5b      	ldr	r3, [r3, #68]	; 0x44
 8001b1c:	f003 0310 	and.w	r3, r3, #16
 8001b20:	60fb      	str	r3, [r7, #12]
 8001b22:	68fb      	ldr	r3, [r7, #12]

      /* Configure USART1_TX (PA9) and USART1_RX (PA10) */
      GPIO_InitStructure.Pin = GPIO_PIN_9 | GPIO_PIN_10;
 8001b24:	f44f 63c0 	mov.w	r3, #1536	; 0x600
 8001b28:	613b      	str	r3, [r7, #16]
      GPIO_InitStructure.Mode = GPIO_MODE_AF_PP;
 8001b2a:	2302      	movs	r3, #2
 8001b2c:	617b      	str	r3, [r7, #20]
      GPIO_InitStructure.Pull = GPIO_PULLUP;
 8001b2e:	2301      	movs	r3, #1
 8001b30:	61bb      	str	r3, [r7, #24]
      GPIO_InitStructure.Speed = GPIO_SPEED_FAST;
 8001b32:	2302      	movs	r3, #2
 8001b34:	61fb      	str	r3, [r7, #28]
      GPIO_InitStructure.Alternate = GPIO_AF7_USART1;
 8001b36:	2307      	movs	r3, #7
 8001b38:	623b      	str	r3, [r7, #32]
      HAL_GPIO_Init(GPIOA, &GPIO_InitStructure);
 8001b3a:	f107 0310 	add.w	r3, r7, #16
 8001b3e:	4619      	mov	r1, r3
 8001b40:	4809      	ldr	r0, [pc, #36]	; (8001b68 <HAL_UART_MspInit+0xa0>)
 8001b42:	f00b fde7 	bl	800d714 <HAL_GPIO_Init>
  }
}
 8001b46:	bf00      	nop
 8001b48:	4b04      	ldr	r3, [pc, #16]	; (8001b5c <HAL_UART_MspInit+0x94>)
 8001b4a:	681a      	ldr	r2, [r3, #0]
 8001b4c:	6a7b      	ldr	r3, [r7, #36]	; 0x24
 8001b4e:	405a      	eors	r2, r3
 8001b50:	d001      	beq.n	8001b56 <HAL_UART_MspInit+0x8e>
 8001b52:	f002 fc49 	bl	80043e8 <__stack_chk_fail>
 8001b56:	3728      	adds	r7, #40	; 0x28
 8001b58:	46bd      	mov	sp, r7
 8001b5a:	bd80      	pop	{r7, pc}
 8001b5c:	0801ff88 	.word	0x0801ff88
 8001b60:	40011000 	.word	0x40011000
 8001b64:	40023800 	.word	0x40023800
 8001b68:	40020000 	.word	0x40020000

08001b6c <UsartInit>:
    HAL_GPIO_DeInit(GPIOD, GPIO_PIN_9|GPIO_PIN_10);
  }
}

/* USER CODE BEGIN 1 */
VOID UsartInit(VOID) {
 8001b6c:	b580      	push	{r7, lr}
 8001b6e:	af00      	add	r7, sp, #0
    MX_USART1_UART_Init();
 8001b70:	f7ff ff7a 	bl	8001a68 <MX_USART1_UART_Init>
}
 8001b74:	bf00      	nop
 8001b76:	bd80      	pop	{r7, pc}

08001b78 <UsartWrite>:

VOID UsartWrite(const CHAR c)
{
 8001b78:	b580      	push	{r7, lr}
 8001b7a:	b082      	sub	sp, #8
 8001b7c:	af00      	add	r7, sp, #0
 8001b7e:	4603      	mov	r3, r0
 8001b80:	71fb      	strb	r3, [r7, #7]
    (VOID)HAL_UART_Transmit(&huart1, (UINT8 *)&c, 1, DEFAULT_TIMEOUT);
 8001b82:	1df9      	adds	r1, r7, #7
 8001b84:	f64f 73ff 	movw	r3, #65535	; 0xffff
 8001b88:	2201      	movs	r2, #1
 8001b8a:	4803      	ldr	r0, [pc, #12]	; (8001b98 <UsartWrite+0x20>)
 8001b8c:	f00b ffed 	bl	800db6a <HAL_UART_Transmit>
}
 8001b90:	bf00      	nop
 8001b92:	3708      	adds	r7, #8
 8001b94:	46bd      	mov	sp, r7
 8001b96:	bd80      	pop	{r7, pc}
 8001b98:	20003540 	.word	0x20003540

08001b9c <UsartRead>:

UINT8 UsartRead(VOID)
{
 8001b9c:	b580      	push	{r7, lr}
 8001b9e:	b082      	sub	sp, #8
 8001ba0:	af00      	add	r7, sp, #0
 8001ba2:	4b0b      	ldr	r3, [pc, #44]	; (8001bd0 <UsartRead+0x34>)
 8001ba4:	681b      	ldr	r3, [r3, #0]
 8001ba6:	607b      	str	r3, [r7, #4]
 8001ba8:	f04f 0300 	mov.w	r3, #0
    UINT8 ch;
    // LedTaskTrigger();
    (VOID)HAL_UART_Receive(&huart1, &ch, sizeof(UINT8), 0);
 8001bac:	1cf9      	adds	r1, r7, #3
 8001bae:	2300      	movs	r3, #0
 8001bb0:	2201      	movs	r2, #1
 8001bb2:	4808      	ldr	r0, [pc, #32]	; (8001bd4 <UsartRead+0x38>)
 8001bb4:	f00c f868 	bl	800dc88 <HAL_UART_Receive>
    return ch;
 8001bb8:	78fb      	ldrb	r3, [r7, #3]
}
 8001bba:	4a05      	ldr	r2, [pc, #20]	; (8001bd0 <UsartRead+0x34>)
 8001bbc:	6811      	ldr	r1, [r2, #0]
 8001bbe:	687a      	ldr	r2, [r7, #4]
 8001bc0:	4051      	eors	r1, r2
 8001bc2:	d001      	beq.n	8001bc8 <UsartRead+0x2c>
 8001bc4:	f002 fc10 	bl	80043e8 <__stack_chk_fail>
 8001bc8:	4618      	mov	r0, r3
 8001bca:	3708      	adds	r7, #8
 8001bcc:	46bd      	mov	sp, r7
 8001bce:	bd80      	pop	{r7, pc}
 8001bd0:	0801ff8c 	.word	0x0801ff8c
 8001bd4:	20003540 	.word	0x20003540

08001bd8 <USART1_IdleCallback>:

//
void USART1_IdleCallback(uint8_t *pData,uint16_t len)
{
 8001bd8:	b480      	push	{r7}
 8001bda:	b083      	sub	sp, #12
 8001bdc:	af00      	add	r7, sp, #0
 8001bde:	6078      	str	r0, [r7, #4]
 8001be0:	460b      	mov	r3, r1
 8001be2:	807b      	strh	r3, [r7, #2]
    while(__HAL_UART_GET_FLAG(&huart1,UART_FLAG_TC) != SET);
 8001be4:	bf00      	nop
 8001be6:	4b07      	ldr	r3, [pc, #28]	; (8001c04 <USART1_IdleCallback+0x2c>)
 8001be8:	681b      	ldr	r3, [r3, #0]
 8001bea:	69db      	ldr	r3, [r3, #28]
 8001bec:	f003 0340 	and.w	r3, r3, #64	; 0x40
 8001bf0:	2b40      	cmp	r3, #64	; 0x40
 8001bf2:	d1f8      	bne.n	8001be6 <USART1_IdleCallback+0xe>
    // HAL_UART_Transmit(&huart1,pData,len,1000);
}
 8001bf4:	bf00      	nop
 8001bf6:	bf00      	nop
 8001bf8:	370c      	adds	r7, #12
 8001bfa:	46bd      	mov	sp, r7
 8001bfc:	f85d 7b04 	ldr.w	r7, [sp], #4
 8001c00:	4770      	bx	lr
 8001c02:	bf00      	nop
 8001c04:	20003540 	.word	0x20003540

08001c08 <__USART1_IRQHandler>:

void __USART1_IRQHandler(void)
{
 8001c08:	b580      	push	{r7, lr}
 8001c0a:	af00      	add	r7, sp, #0

    if(__HAL_UART_GET_FLAG(&huart1,UART_FLAG_ORE) != RESET) {
 8001c0c:	4b1b      	ldr	r3, [pc, #108]	; (8001c7c <__USART1_IRQHandler+0x74>)
 8001c0e:	681b      	ldr	r3, [r3, #0]
 8001c10:	69db      	ldr	r3, [r3, #28]
 8001c12:	f003 0308 	and.w	r3, r3, #8
 8001c16:	2b08      	cmp	r3, #8
 8001c18:	d104      	bne.n	8001c24 <__USART1_IRQHandler+0x1c>
        __HAL_UART_CLEAR_FLAG(&huart1, UART_CLEAR_OREF);
 8001c1a:	4b18      	ldr	r3, [pc, #96]	; (8001c7c <__USART1_IRQHandler+0x74>)
 8001c1c:	681b      	ldr	r3, [r3, #0]
 8001c1e:	2208      	movs	r2, #8
 8001c20:	621a      	str	r2, [r3, #32]
        goto out;
 8001c22:	e028      	b.n	8001c76 <__USART1_IRQHandler+0x6e>
    }

    //
    if(__HAL_UART_GET_FLAG(&huart1,UART_FLAG_RXNE) != RESET) {
 8001c24:	4b15      	ldr	r3, [pc, #84]	; (8001c7c <__USART1_IRQHandler+0x74>)
 8001c26:	681b      	ldr	r3, [r3, #0]
 8001c28:	69db      	ldr	r3, [r3, #28]
 8001c2a:	f003 0320 	and.w	r3, r3, #32
 8001c2e:	2b20      	cmp	r3, #32
 8001c30:	d106      	bne.n	8001c40 <__USART1_IRQHandler+0x38>
        (VOID)uart_getc();
 8001c32:	f00e f8f1 	bl	800fe18 <uart_getc>
        __HAL_UART_CLEAR_FLAG(&huart1,UART_FLAG_RXNE);
 8001c36:	4b11      	ldr	r3, [pc, #68]	; (8001c7c <__USART1_IRQHandler+0x74>)
 8001c38:	681b      	ldr	r3, [r3, #0]
 8001c3a:	2220      	movs	r2, #32
 8001c3c:	621a      	str	r2, [r3, #32]
        goto out;
 8001c3e:	e01a      	b.n	8001c76 <__USART1_IRQHandler+0x6e>
    }
    //
    if(__HAL_UART_GET_FLAG(&huart1,UART_FLAG_IDLE) != RESET) {
 8001c40:	4b0e      	ldr	r3, [pc, #56]	; (8001c7c <__USART1_IRQHandler+0x74>)
 8001c42:	681b      	ldr	r3, [r3, #0]
 8001c44:	69db      	ldr	r3, [r3, #28]
 8001c46:	f003 0310 	and.w	r3, r3, #16
 8001c4a:	2b10      	cmp	r3, #16
 8001c4c:	d10b      	bne.n	8001c66 <__USART1_IRQHandler+0x5e>
        //  
        USART1_IdleCallback(aRxBuffer,rxConut);
 8001c4e:	4b0c      	ldr	r3, [pc, #48]	; (8001c80 <__USART1_IRQHandler+0x78>)
 8001c50:	681b      	ldr	r3, [r3, #0]
 8001c52:	b29b      	uxth	r3, r3
 8001c54:	4619      	mov	r1, r3
 8001c56:	480b      	ldr	r0, [pc, #44]	; (8001c84 <__USART1_IRQHandler+0x7c>)
 8001c58:	f7ff ffbe 	bl	8001bd8 <USART1_IdleCallback>
        __HAL_UART_CLEAR_FLAG(&huart1,UART_CLEAR_IDLEF);
 8001c5c:	4b07      	ldr	r3, [pc, #28]	; (8001c7c <__USART1_IRQHandler+0x74>)
 8001c5e:	681b      	ldr	r3, [r3, #0]
 8001c60:	2210      	movs	r2, #16
 8001c62:	621a      	str	r2, [r3, #32]
        goto out;
 8001c64:	e007      	b.n	8001c76 <__USART1_IRQHandler+0x6e>
    }

    while(1) {
        printf("huart1.Instance->ISR 0x%x\n",huart1.Instance->ISR);
 8001c66:	4b05      	ldr	r3, [pc, #20]	; (8001c7c <__USART1_IRQHandler+0x74>)
 8001c68:	681b      	ldr	r3, [r3, #0]
 8001c6a:	69db      	ldr	r3, [r3, #28]
 8001c6c:	4619      	mov	r1, r3
 8001c6e:	4806      	ldr	r0, [pc, #24]	; (8001c88 <__USART1_IRQHandler+0x80>)
 8001c70:	f00d fcc4 	bl	800f5fc <printf>
 8001c74:	e7f7      	b.n	8001c66 <__USART1_IRQHandler+0x5e>
    }
    out:
    return;
 8001c76:	bf00      	nop
}
 8001c78:	bd80      	pop	{r7, pc}
 8001c7a:	bf00      	nop
 8001c7c:	20003540 	.word	0x20003540
 8001c80:	20000748 	.word	0x20000748
 8001c84:	200035c4 	.word	0x200035c4
 8001c88:	0801ff90 	.word	0x0801ff90

08001c8c <UsartHwi>:


INT32 UsartHwi(VOID)
{
 8001c8c:	b580      	push	{r7, lr}
 8001c8e:	b082      	sub	sp, #8
 8001c90:	af02      	add	r7, sp, #8
    if (huart1.Instance == NULL) {
 8001c92:	4b17      	ldr	r3, [pc, #92]	; (8001cf0 <UsartHwi+0x64>)
 8001c94:	681b      	ldr	r3, [r3, #0]
 8001c96:	2b00      	cmp	r3, #0
 8001c98:	d101      	bne.n	8001c9e <UsartHwi+0x12>
        return LOS_NOK;
 8001c9a:	2301      	movs	r3, #1
 8001c9c:	e024      	b.n	8001ce8 <UsartHwi+0x5c>
    }
    HAL_NVIC_EnableIRQ(USART1_IRQn);
 8001c9e:	2025      	movs	r0, #37	; 0x25
 8001ca0:	f00b fd20 	bl	800d6e4 <HAL_NVIC_EnableIRQ>
    __HAL_UART_CLEAR_FLAG(&huart1, UART_FLAG_TC);
 8001ca4:	4b12      	ldr	r3, [pc, #72]	; (8001cf0 <UsartHwi+0x64>)
 8001ca6:	681b      	ldr	r3, [r3, #0]
 8001ca8:	2240      	movs	r2, #64	; 0x40
 8001caa:	621a      	str	r2, [r3, #32]
    (VOID)LOS_HwiCreate(NUM_HAL_INTERRUPT_UART, 0, 0, __USART1_IRQHandler, NULL);
 8001cac:	2300      	movs	r3, #0
 8001cae:	9300      	str	r3, [sp, #0]
 8001cb0:	4b10      	ldr	r3, [pc, #64]	; (8001cf4 <UsartHwi+0x68>)
 8001cb2:	2200      	movs	r2, #0
 8001cb4:	2100      	movs	r1, #0
 8001cb6:	2035      	movs	r0, #53	; 0x35
 8001cb8:	f000 fbf0 	bl	800249c <LOS_HwiCreate>
    HAL_NVIC_SetPriority(USART1_IRQn, 15, 0U);
 8001cbc:	2200      	movs	r2, #0
 8001cbe:	210f      	movs	r1, #15
 8001cc0:	2025      	movs	r0, #37	; 0x25
 8001cc2:	f00b fcf6 	bl	800d6b2 <HAL_NVIC_SetPriority>

    __HAL_UART_ENABLE_IT(&huart1,UART_IT_RXNE);//
 8001cc6:	4b0a      	ldr	r3, [pc, #40]	; (8001cf0 <UsartHwi+0x64>)
 8001cc8:	681b      	ldr	r3, [r3, #0]
 8001cca:	681a      	ldr	r2, [r3, #0]
 8001ccc:	4b08      	ldr	r3, [pc, #32]	; (8001cf0 <UsartHwi+0x64>)
 8001cce:	681b      	ldr	r3, [r3, #0]
 8001cd0:	f042 0220 	orr.w	r2, r2, #32
 8001cd4:	601a      	str	r2, [r3, #0]
    __HAL_UART_ENABLE_IT(&huart1,UART_IT_IDLE);//
 8001cd6:	4b06      	ldr	r3, [pc, #24]	; (8001cf0 <UsartHwi+0x64>)
 8001cd8:	681b      	ldr	r3, [r3, #0]
 8001cda:	681a      	ldr	r2, [r3, #0]
 8001cdc:	4b04      	ldr	r3, [pc, #16]	; (8001cf0 <UsartHwi+0x64>)
 8001cde:	681b      	ldr	r3, [r3, #0]
 8001ce0:	f042 0210 	orr.w	r2, r2, #16
 8001ce4:	601a      	str	r2, [r3, #0]
    return LOS_OK;
 8001ce6:	2300      	movs	r3, #0
}
 8001ce8:	4618      	mov	r0, r3
 8001cea:	46bd      	mov	sp, r7
 8001cec:	bd80      	pop	{r7, pc}
 8001cee:	bf00      	nop
 8001cf0:	20003540 	.word	0x20003540
 8001cf4:	08001c09 	.word	0x08001c09

08001cf8 <Fire_DEBUG_GPIOB6_TRIGGER>:

	HAL_GPIO_WritePin(LED_BLUE_GPIO_PORT,LED_BLUE_PIN,!on);
}

void Fire_DEBUG_GPIOB6_TRIGGER(void)
{
 8001cf8:	b580      	push	{r7, lr}
 8001cfa:	af00      	add	r7, sp, #0
    HAL_GPIO_TogglePin(GPIOB, GPIO_PIN_6);
 8001cfc:	2140      	movs	r1, #64	; 0x40
 8001cfe:	4802      	ldr	r0, [pc, #8]	; (8001d08 <Fire_DEBUG_GPIOB6_TRIGGER+0x10>)
 8001d00:	f00b fecc 	bl	800da9c <HAL_GPIO_TogglePin>
}
 8001d04:	bf00      	nop
 8001d06:	bd80      	pop	{r7, pc}
 8001d08:	40020400 	.word	0x40020400

08001d0c <Fire_DEBUG_GPIOB7_TRIGGER>:

void Fire_DEBUG_GPIOB7_TRIGGER(void)
{
 8001d0c:	b580      	push	{r7, lr}
 8001d0e:	af00      	add	r7, sp, #0
    HAL_GPIO_TogglePin(GPIOB, GPIO_PIN_7);
 8001d10:	2180      	movs	r1, #128	; 0x80
 8001d12:	4802      	ldr	r0, [pc, #8]	; (8001d1c <Fire_DEBUG_GPIOB7_TRIGGER+0x10>)
 8001d14:	f00b fec2 	bl	800da9c <HAL_GPIO_TogglePin>
}
 8001d18:	bf00      	nop
 8001d1a:	bd80      	pop	{r7, pc}
 8001d1c:	40020400 	.word	0x40020400

08001d20 <Fire_DEBUG_GPIOB6>:
{
    HAL_GPIO_WritePin(GPIOA, GPIO_PIN_4, on);
}

void Fire_DEBUG_GPIOB6(int on)
{
 8001d20:	b580      	push	{r7, lr}
 8001d22:	b082      	sub	sp, #8
 8001d24:	af00      	add	r7, sp, #0
 8001d26:	6078      	str	r0, [r7, #4]
    HAL_GPIO_WritePin(GPIOB, GPIO_PIN_6, on);
 8001d28:	687b      	ldr	r3, [r7, #4]
 8001d2a:	461a      	mov	r2, r3
 8001d2c:	2140      	movs	r1, #64	; 0x40
 8001d2e:	4803      	ldr	r0, [pc, #12]	; (8001d3c <Fire_DEBUG_GPIOB6+0x1c>)
 8001d30:	f00b fe9c 	bl	800da6c <HAL_GPIO_WritePin>
}
 8001d34:	bf00      	nop
 8001d36:	3708      	adds	r7, #8
 8001d38:	46bd      	mov	sp, r7
 8001d3a:	bd80      	pop	{r7, pc}
 8001d3c:	40020400 	.word	0x40020400

08001d40 <Fire_DEBUG_GPIOB7>:

void Fire_DEBUG_GPIOB7(int on)
{
 8001d40:	b580      	push	{r7, lr}
 8001d42:	b082      	sub	sp, #8
 8001d44:	af00      	add	r7, sp, #0
 8001d46:	6078      	str	r0, [r7, #4]
    HAL_GPIO_WritePin(GPIOB, GPIO_PIN_7, on);
 8001d48:	687b      	ldr	r3, [r7, #4]
 8001d4a:	461a      	mov	r2, r3
 8001d4c:	2180      	movs	r1, #128	; 0x80
 8001d4e:	4803      	ldr	r0, [pc, #12]	; (8001d5c <Fire_DEBUG_GPIOB7+0x1c>)
 8001d50:	f00b fe8c 	bl	800da6c <HAL_GPIO_WritePin>
}
 8001d54:	bf00      	nop
 8001d56:	3708      	adds	r7, #8
 8001d58:	46bd      	mov	sp, r7
 8001d5a:	bd80      	pop	{r7, pc}
 8001d5c:	40020400 	.word	0x40020400

08001d60 <Error_Handler>:
{
 8001d60:	b580      	push	{r7, lr}
 8001d62:	af00      	add	r7, sp, #0
    _Error_Handler(__FILE__, __LINE__);
 8001d64:	213b      	movs	r1, #59	; 0x3b
 8001d66:	4802      	ldr	r0, [pc, #8]	; (8001d70 <Error_Handler+0x10>)
 8001d68:	f000 f813 	bl	8001d92 <_Error_Handler>
}
 8001d6c:	bf00      	nop
 8001d6e:	bd80      	pop	{r7, pc}
 8001d70:	0801ffac 	.word	0x0801ffac

08001d74 <HAL_GetTick>:
 * --------------------------------------------------------------------------- */

#include "sys_init.h"
#include "los_sys.h"

uint32_t HAL_GetTick(void) {
 8001d74:	b580      	push	{r7, lr}
 8001d76:	af00      	add	r7, sp, #0
#ifdef LOSCFG_PLATFORM_STM32F767_FIRE
    extern UINT64 Hal_STM32F767_Get_Timer_CNT(VOID);
    return Hal_STM32F767_Get_Timer_CNT()/1000;
 8001d78:	f7ff fdf4 	bl	8001964 <Hal_STM32F767_Get_Timer_CNT>
 8001d7c:	f44f 727a 	mov.w	r2, #1000	; 0x3e8
 8001d80:	f04f 0300 	mov.w	r3, #0
 8001d84:	f7fe fe06 	bl	8000994 <__aeabi_uldivmod>
 8001d88:	4602      	mov	r2, r0
 8001d8a:	460b      	mov	r3, r1
 8001d8c:	4613      	mov	r3, r2
#else
    return (UINT32)LOS_TickCountGet();
#endif    
}
 8001d8e:	4618      	mov	r0, r3
 8001d90:	bd80      	pop	{r7, pc}

08001d92 <_Error_Handler>:
  * @brief  This function is executed in case of error occurrence.
  * @param  file: The file name as string.
  * @param  line: The line in file as a number.
  * @retval None
  */
void _Error_Handler(char const *file, int line) {
 8001d92:	b480      	push	{r7}
 8001d94:	b083      	sub	sp, #12
 8001d96:	af00      	add	r7, sp, #0
 8001d98:	6078      	str	r0, [r7, #4]
 8001d9a:	6039      	str	r1, [r7, #0]
    /* USER CODE BEGIN Error_Handler_Debug */
    /* User can add his own implementation to report the HAL error return state */
    (void)file;
    (void)line;
    while (1) {
 8001d9c:	e7fe      	b.n	8001d9c <_Error_Handler+0xa>
	...

08001da0 <SystemClock_Config>:

/**
  * @brief System Clock Configuration
  * @retval None
  */
void SystemClock_Config(void) {
 8001da0:	b580      	push	{r7, lr}
 8001da2:	b0ba      	sub	sp, #232	; 0xe8
 8001da4:	af00      	add	r7, sp, #0
 8001da6:	4b48      	ldr	r3, [pc, #288]	; (8001ec8 <SystemClock_Config+0x128>)
 8001da8:	681b      	ldr	r3, [r3, #0]
 8001daa:	f8c7 30e4 	str.w	r3, [r7, #228]	; 0xe4
 8001dae:	f04f 0300 	mov.w	r3, #0
    RCC_OscInitTypeDef rccOscInitStruct = {0};
 8001db2:	f107 0320 	add.w	r3, r7, #32
 8001db6:	2234      	movs	r2, #52	; 0x34
 8001db8:	2100      	movs	r1, #0
 8001dba:	4618      	mov	r0, r3
 8001dbc:	f00c fd42 	bl	800e844 <memset>
    RCC_ClkInitTypeDef rccClkInitStruct = {0};
 8001dc0:	f107 030c 	add.w	r3, r7, #12
 8001dc4:	2200      	movs	r2, #0
 8001dc6:	601a      	str	r2, [r3, #0]
 8001dc8:	605a      	str	r2, [r3, #4]
 8001dca:	609a      	str	r2, [r3, #8]
 8001dcc:	60da      	str	r2, [r3, #12]
 8001dce:	611a      	str	r2, [r3, #16]
    RCC_PeriphCLKInitTypeDef PeriphClkInitStruct = {0};
 8001dd0:	f107 0354 	add.w	r3, r7, #84	; 0x54
 8001dd4:	2290      	movs	r2, #144	; 0x90
 8001dd6:	2100      	movs	r1, #0
 8001dd8:	4618      	mov	r0, r3
 8001dda:	f00c fd33 	bl	800e844 <memset>

    /** Configure LSE Drive Capability
    */
    HAL_PWR_EnableBkUpAccess();
 8001dde:	f00b fb03 	bl	800d3e8 <HAL_PWR_EnableBkUpAccess>
    /** Configure the main internal regulator output voltage
    */
    __HAL_RCC_PWR_CLK_ENABLE();
 8001de2:	4b3a      	ldr	r3, [pc, #232]	; (8001ecc <SystemClock_Config+0x12c>)
 8001de4:	6c1b      	ldr	r3, [r3, #64]	; 0x40
 8001de6:	4a39      	ldr	r2, [pc, #228]	; (8001ecc <SystemClock_Config+0x12c>)
 8001de8:	f043 5380 	orr.w	r3, r3, #268435456	; 0x10000000
 8001dec:	6413      	str	r3, [r2, #64]	; 0x40
 8001dee:	4b37      	ldr	r3, [pc, #220]	; (8001ecc <SystemClock_Config+0x12c>)
 8001df0:	6c1b      	ldr	r3, [r3, #64]	; 0x40
 8001df2:	f003 5380 	and.w	r3, r3, #268435456	; 0x10000000
 8001df6:	607b      	str	r3, [r7, #4]
 8001df8:	687b      	ldr	r3, [r7, #4]
    __HAL_PWR_VOLTAGESCALING_CONFIG(PWR_REGULATOR_VOLTAGE_SCALE1);
 8001dfa:	4b35      	ldr	r3, [pc, #212]	; (8001ed0 <SystemClock_Config+0x130>)
 8001dfc:	681b      	ldr	r3, [r3, #0]
 8001dfe:	4a34      	ldr	r2, [pc, #208]	; (8001ed0 <SystemClock_Config+0x130>)
 8001e00:	f443 4340 	orr.w	r3, r3, #49152	; 0xc000
 8001e04:	6013      	str	r3, [r2, #0]
 8001e06:	4b32      	ldr	r3, [pc, #200]	; (8001ed0 <SystemClock_Config+0x130>)
 8001e08:	681b      	ldr	r3, [r3, #0]
 8001e0a:	f403 4340 	and.w	r3, r3, #49152	; 0xc000
 8001e0e:	60bb      	str	r3, [r7, #8]
 8001e10:	68bb      	ldr	r3, [r7, #8]
    /** Initializes the RCC Oscillators according to the specified parameters
    * in the RCC_OscInitTypeDef structure.
    */

    rccOscInitStruct.OscillatorType = RCC_OSCILLATORTYPE_HSE;
 8001e12:	2301      	movs	r3, #1
 8001e14:	623b      	str	r3, [r7, #32]
    rccOscInitStruct.HSEState = RCC_HSE_ON;
 8001e16:	f44f 3380 	mov.w	r3, #65536	; 0x10000
 8001e1a:	627b      	str	r3, [r7, #36]	; 0x24
    rccOscInitStruct.PLL.PLLState = RCC_PLL_ON;
 8001e1c:	2302      	movs	r3, #2
 8001e1e:	63bb      	str	r3, [r7, #56]	; 0x38
    rccOscInitStruct.PLL.PLLSource = RCC_PLLSOURCE_HSE;
 8001e20:	f44f 0380 	mov.w	r3, #4194304	; 0x400000
 8001e24:	63fb      	str	r3, [r7, #60]	; 0x3c
    rccOscInitStruct.PLL.PLLM = 25;// 4, Division factor for PLL VCO iput clock.
 8001e26:	2319      	movs	r3, #25
 8001e28:	643b      	str	r3, [r7, #64]	; 0x40
    rccOscInitStruct.PLL.PLLN = 432; // 216, Multiplication factor for PLL VCO output clock.
 8001e2a:	f44f 73d8 	mov.w	r3, #432	; 0x1b0
 8001e2e:	647b      	str	r3, [r7, #68]	; 0x44
    rccOscInitStruct.PLL.PLLP = RCC_PLLP_DIV2;
 8001e30:	2302      	movs	r3, #2
 8001e32:	64bb      	str	r3, [r7, #72]	; 0x48
    rccOscInitStruct.PLL.PLLQ = 2; // 9, Division factor for
 8001e34:	2302      	movs	r3, #2
 8001e36:	64fb      	str	r3, [r7, #76]	; 0x4c
    rccOscInitStruct.PLL.PLLR = 2;
 8001e38:	2302      	movs	r3, #2
 8001e3a:	653b      	str	r3, [r7, #80]	; 0x50


    if (HAL_RCC_OscConfig(&rccOscInitStruct) != HAL_OK) {
 8001e3c:	f107 0320 	add.w	r3, r7, #32
 8001e40:	4618      	mov	r0, r3
 8001e42:	f00a fd95 	bl	800c970 <HAL_RCC_OscConfig>
 8001e46:	4603      	mov	r3, r0
 8001e48:	2b00      	cmp	r3, #0
 8001e4a:	d001      	beq.n	8001e50 <SystemClock_Config+0xb0>
        Error_Handler();
 8001e4c:	f7ff ff88 	bl	8001d60 <Error_Handler>
    }
    /** Activate the Over-Drive mode
    */
    if (HAL_PWREx_EnableOverDrive() != HAL_OK) {
 8001e50:	f00a fd3e 	bl	800c8d0 <HAL_PWREx_EnableOverDrive>
 8001e54:	4603      	mov	r3, r0
 8001e56:	2b00      	cmp	r3, #0
 8001e58:	d001      	beq.n	8001e5e <SystemClock_Config+0xbe>
        Error_Handler();
 8001e5a:	f7ff ff81 	bl	8001d60 <Error_Handler>
    }
    /** Initializes the CPU, AHB and APB buses clocks
    */
    rccClkInitStruct.ClockType = RCC_CLOCKTYPE_HCLK | RCC_CLOCKTYPE_SYSCLK
 8001e5e:	230f      	movs	r3, #15
 8001e60:	60fb      	str	r3, [r7, #12]
                                  | RCC_CLOCKTYPE_PCLK1 | RCC_CLOCKTYPE_PCLK2;
    rccClkInitStruct.SYSCLKSource = RCC_SYSCLKSOURCE_PLLCLK;
 8001e62:	2302      	movs	r3, #2
 8001e64:	613b      	str	r3, [r7, #16]
    rccClkInitStruct.AHBCLKDivider = RCC_SYSCLK_DIV1;
 8001e66:	2300      	movs	r3, #0
 8001e68:	617b      	str	r3, [r7, #20]
    rccClkInitStruct.APB1CLKDivider = RCC_HCLK_DIV4;
 8001e6a:	f44f 53a0 	mov.w	r3, #5120	; 0x1400
 8001e6e:	61bb      	str	r3, [r7, #24]
    rccClkInitStruct.APB2CLKDivider = RCC_HCLK_DIV2;
 8001e70:	f44f 5380 	mov.w	r3, #4096	; 0x1000
 8001e74:	61fb      	str	r3, [r7, #28]

    if (HAL_RCC_ClockConfig(&rccClkInitStruct, FLASH_LATENCY_7) != HAL_OK) {
 8001e76:	f107 030c 	add.w	r3, r7, #12
 8001e7a:	2107      	movs	r1, #7
 8001e7c:	4618      	mov	r0, r3
 8001e7e:	f00b f825 	bl	800cecc <HAL_RCC_ClockConfig>
 8001e82:	4603      	mov	r3, r0
 8001e84:	2b00      	cmp	r3, #0
 8001e86:	d001      	beq.n	8001e8c <SystemClock_Config+0xec>
        Error_Handler();
 8001e88:	f7ff ff6a 	bl	8001d60 <Error_Handler>
    }

    PeriphClkInitStruct.PeriphClockSelection = RCC_PERIPHCLK_USART1;
 8001e8c:	2340      	movs	r3, #64	; 0x40
 8001e8e:	657b      	str	r3, [r7, #84]	; 0x54
    PeriphClkInitStruct.Usart1ClockSelection = RCC_USART1CLKSOURCE_PCLK2;
 8001e90:	2300      	movs	r3, #0
 8001e92:	f8c7 3098 	str.w	r3, [r7, #152]	; 0x98
    if (HAL_RCCEx_PeriphCLKConfig(&PeriphClkInitStruct) != HAL_OK)
 8001e96:	f107 0354 	add.w	r3, r7, #84	; 0x54
 8001e9a:	4618      	mov	r0, r3
 8001e9c:	f009 fcec 	bl	800b878 <HAL_RCCEx_PeriphCLKConfig>
 8001ea0:	4603      	mov	r3, r0
 8001ea2:	2b00      	cmp	r3, #0
 8001ea4:	d001      	beq.n	8001eaa <SystemClock_Config+0x10a>
    {
        Error_Handler();
 8001ea6:	f7ff ff5b 	bl	8001d60 <Error_Handler>
    }
    /** Enables the Clock Security System
    */
    HAL_RCC_EnableCSS();
 8001eaa:	f00b f8fb 	bl	800d0a4 <HAL_RCC_EnableCSS>
}
 8001eae:	bf00      	nop
 8001eb0:	4b05      	ldr	r3, [pc, #20]	; (8001ec8 <SystemClock_Config+0x128>)
 8001eb2:	681a      	ldr	r2, [r3, #0]
 8001eb4:	f8d7 30e4 	ldr.w	r3, [r7, #228]	; 0xe4
 8001eb8:	405a      	eors	r2, r3
 8001eba:	d001      	beq.n	8001ec0 <SystemClock_Config+0x120>
 8001ebc:	f002 fa94 	bl	80043e8 <__stack_chk_fail>
 8001ec0:	37e8      	adds	r7, #232	; 0xe8
 8001ec2:	46bd      	mov	sp, r7
 8001ec4:	bd80      	pop	{r7, pc}
 8001ec6:	bf00      	nop
 8001ec8:	08020008 	.word	0x08020008
 8001ecc:	40023800 	.word	0x40023800
 8001ed0:	40007000 	.word	0x40007000

08001ed4 <HAL_MspInit>:

void HAL_MspInit(void)
{
 8001ed4:	b480      	push	{r7}
 8001ed6:	b083      	sub	sp, #12
 8001ed8:	af00      	add	r7, sp, #0
    __HAL_RCC_PWR_CLK_ENABLE();
 8001eda:	4b0f      	ldr	r3, [pc, #60]	; (8001f18 <HAL_MspInit+0x44>)
 8001edc:	6c1b      	ldr	r3, [r3, #64]	; 0x40
 8001ede:	4a0e      	ldr	r2, [pc, #56]	; (8001f18 <HAL_MspInit+0x44>)
 8001ee0:	f043 5380 	orr.w	r3, r3, #268435456	; 0x10000000
 8001ee4:	6413      	str	r3, [r2, #64]	; 0x40
 8001ee6:	4b0c      	ldr	r3, [pc, #48]	; (8001f18 <HAL_MspInit+0x44>)
 8001ee8:	6c1b      	ldr	r3, [r3, #64]	; 0x40
 8001eea:	f003 5380 	and.w	r3, r3, #268435456	; 0x10000000
 8001eee:	603b      	str	r3, [r7, #0]
 8001ef0:	683b      	ldr	r3, [r7, #0]
    __HAL_RCC_SYSCFG_CLK_ENABLE();
 8001ef2:	4b09      	ldr	r3, [pc, #36]	; (8001f18 <HAL_MspInit+0x44>)
 8001ef4:	6c5b      	ldr	r3, [r3, #68]	; 0x44
 8001ef6:	4a08      	ldr	r2, [pc, #32]	; (8001f18 <HAL_MspInit+0x44>)
 8001ef8:	f443 4380 	orr.w	r3, r3, #16384	; 0x4000
 8001efc:	6453      	str	r3, [r2, #68]	; 0x44
 8001efe:	4b06      	ldr	r3, [pc, #24]	; (8001f18 <HAL_MspInit+0x44>)
 8001f00:	6c5b      	ldr	r3, [r3, #68]	; 0x44
 8001f02:	f403 4380 	and.w	r3, r3, #16384	; 0x4000
 8001f06:	607b      	str	r3, [r7, #4]
 8001f08:	687b      	ldr	r3, [r7, #4]
}
 8001f0a:	bf00      	nop
 8001f0c:	370c      	adds	r7, #12
 8001f0e:	46bd      	mov	sp, r7
 8001f10:	f85d 7b04 	ldr.w	r7, [sp], #4
 8001f14:	4770      	bx	lr
 8001f16:	bf00      	nop
 8001f18:	40023800 	.word	0x40023800

08001f1c <ArchCurrCpuid>:

    return regMsp;
}

STATIC INLINE UINT32 ArchCurrCpuid(void)
{
 8001f1c:	b480      	push	{r7}
 8001f1e:	af00      	add	r7, sp, #0
    return 0;
 8001f20:	2300      	movs	r3, #0
}
 8001f22:	4618      	mov	r0, r3
 8001f24:	46bd      	mov	sp, r7
 8001f26:	f85d 7b04 	ldr.w	r7, [sp], #4
 8001f2a:	4770      	bx	lr

08001f2c <LOS_IntLock>:
 * <ul><li>los_hwi.h: the header file that contains the API declaration.</li></ul>
 * @see LOS_IntRestore
 * @since Huawei LiteOS V100R001C00
 */
STATIC INLINE UINT32 LOS_IntLock(VOID)
{
 8001f2c:	b580      	push	{r7, lr}
 8001f2e:	af00      	add	r7, sp, #0
    return ArchIntLock();
 8001f30:	f7fe feca 	bl	8000cc8 <ArchIntLock>
 8001f34:	4603      	mov	r3, r0
}
 8001f36:	4618      	mov	r0, r3
 8001f38:	bd80      	pop	{r7, pc}

08001f3a <LOS_IntRestore>:
 * <ul><li>los_hwi.h: the header file that contains the API declaration.</li></ul>
 * @see LOS_IntLock
 * @since Huawei LiteOS V100R001C00
 */
STATIC INLINE VOID LOS_IntRestore(UINT32 intSave)
{
 8001f3a:	b580      	push	{r7, lr}
 8001f3c:	b082      	sub	sp, #8
 8001f3e:	af00      	add	r7, sp, #0
 8001f40:	6078      	str	r0, [r7, #4]
    ArchIntRestore(intSave);
 8001f42:	6878      	ldr	r0, [r7, #4]
 8001f44:	f7fe fec8 	bl	8000cd8 <ArchIntRestore>
}
 8001f48:	bf00      	nop
 8001f4a:	3708      	adds	r7, #8
 8001f4c:	46bd      	mov	sp, r7
 8001f4e:	bd80      	pop	{r7, pc}

08001f50 <LOS_SpinLockSave>:
{
    (VOID)lock;
}

LITE_OS_SEC_ALW_INLINE STATIC INLINE VOID LOS_SpinLockSave(SPIN_LOCK_S *lock, UINT32 *intSave)
{
 8001f50:	b580      	push	{r7, lr}
 8001f52:	b082      	sub	sp, #8
 8001f54:	af00      	add	r7, sp, #0
 8001f56:	6078      	str	r0, [r7, #4]
 8001f58:	6039      	str	r1, [r7, #0]
    (VOID)lock;
    *intSave = LOS_IntLock();
 8001f5a:	f7ff ffe7 	bl	8001f2c <LOS_IntLock>
 8001f5e:	4602      	mov	r2, r0
 8001f60:	683b      	ldr	r3, [r7, #0]
 8001f62:	601a      	str	r2, [r3, #0]
}
 8001f64:	bf00      	nop
 8001f66:	3708      	adds	r7, #8
 8001f68:	46bd      	mov	sp, r7
 8001f6a:	bd80      	pop	{r7, pc}

08001f6c <LOS_SpinUnlockRestore>:

LITE_OS_SEC_ALW_INLINE STATIC INLINE VOID LOS_SpinUnlockRestore(SPIN_LOCK_S *lock, UINT32 intSave)
{
 8001f6c:	b580      	push	{r7, lr}
 8001f6e:	b082      	sub	sp, #8
 8001f70:	af00      	add	r7, sp, #0
 8001f72:	6078      	str	r0, [r7, #4]
 8001f74:	6039      	str	r1, [r7, #0]
    (VOID)lock;
    LOS_IntRestore(intSave);
 8001f76:	6838      	ldr	r0, [r7, #0]
 8001f78:	f7ff ffdf 	bl	8001f3a <LOS_IntRestore>
}
 8001f7c:	bf00      	nop
 8001f7e:	3708      	adds	r7, #8
 8001f80:	46bd      	mov	sp, r7
 8001f82:	bd80      	pop	{r7, pc}

08001f84 <OsIrqNestingActive>:

typedef VOID (*HWI_PROC_FUNC0)(VOID);
typedef VOID (*HWI_PROC_FUNC2)(INT32, VOID *);

STATIC INLINE VOID OsIrqNestingActive(UINT32 hwiNum)
{
 8001f84:	b480      	push	{r7}
 8001f86:	b083      	sub	sp, #12
 8001f88:	af00      	add	r7, sp, #0
 8001f8a:	6078      	str	r0, [r7, #4]
    /* preemption not allowed when handling tick interrupt */
    if (hwiNum != OS_TICK_INT_NUM) {
        (VOID)LOS_IntUnLock();
    }
#endif
}
 8001f8c:	bf00      	nop
 8001f8e:	370c      	adds	r7, #12
 8001f90:	46bd      	mov	sp, r7
 8001f92:	f85d 7b04 	ldr.w	r7, [sp], #4
 8001f96:	4770      	bx	lr

08001f98 <OsIrqNestingInactive>:

STATIC INLINE VOID OsIrqNestingInactive(UINT32 hwiNum)
{
 8001f98:	b480      	push	{r7}
 8001f9a:	b083      	sub	sp, #12
 8001f9c:	af00      	add	r7, sp, #0
 8001f9e:	6078      	str	r0, [r7, #4]
#ifdef LOSCFG_ARCH_INTERRUPT_PREEMPTION
    if (hwiNum != OS_TICK_INT_NUM) {
        (VOID)LOS_IntLock();
    }
#endif
}
 8001fa0:	bf00      	nop
 8001fa2:	370c      	adds	r7, #12
 8001fa4:	46bd      	mov	sp, r7
 8001fa6:	f85d 7b04 	ldr.w	r7, [sp], #4
 8001faa:	4770      	bx	lr

08001fac <InterruptHandle>:
{
    g_intCount[ArchCurrCpuid()] = val;
}

STATIC INLINE VOID InterruptHandle(HwiHandleInfo *hwiForm)
{
 8001fac:	b580      	push	{r7, lr}
 8001fae:	b086      	sub	sp, #24
 8001fb0:	af00      	add	r7, sp, #0
 8001fb2:	6078      	str	r0, [r7, #4]
    hwiForm->respCount++;
 8001fb4:	687b      	ldr	r3, [r7, #4]
 8001fb6:	68db      	ldr	r3, [r3, #12]
 8001fb8:	1c5a      	adds	r2, r3, #1
 8001fba:	687b      	ldr	r3, [r7, #4]
 8001fbc:	60da      	str	r2, [r3, #12]
#ifdef LOSCFG_SHARED_IRQ
    while (hwiForm->next != NULL) {
 8001fbe:	e022      	b.n	8002006 <InterruptHandle+0x5a>
        hwiForm = hwiForm->next;
 8001fc0:	687b      	ldr	r3, [r7, #4]
 8001fc2:	689b      	ldr	r3, [r3, #8]
 8001fc4:	607b      	str	r3, [r7, #4]
#endif
        if (hwiForm->registerInfo) {
 8001fc6:	687b      	ldr	r3, [r7, #4]
 8001fc8:	685b      	ldr	r3, [r3, #4]
 8001fca:	2b00      	cmp	r3, #0
 8001fcc:	d013      	beq.n	8001ff6 <InterruptHandle+0x4a>
            HWI_PROC_FUNC2 func = (HWI_PROC_FUNC2)hwiForm->hook;
 8001fce:	687b      	ldr	r3, [r7, #4]
 8001fd0:	681b      	ldr	r3, [r3, #0]
 8001fd2:	613b      	str	r3, [r7, #16]
            if (func != NULL) {
 8001fd4:	693b      	ldr	r3, [r7, #16]
 8001fd6:	2b00      	cmp	r3, #0
 8001fd8:	d015      	beq.n	8002006 <InterruptHandle+0x5a>
                UINTPTR *param = (UINTPTR *)(hwiForm->registerInfo);
 8001fda:	687b      	ldr	r3, [r7, #4]
 8001fdc:	685b      	ldr	r3, [r3, #4]
 8001fde:	617b      	str	r3, [r7, #20]
                func((INT32)(*param), (VOID *)(*(param + 1)));
 8001fe0:	697b      	ldr	r3, [r7, #20]
 8001fe2:	681b      	ldr	r3, [r3, #0]
 8001fe4:	461a      	mov	r2, r3
 8001fe6:	697b      	ldr	r3, [r7, #20]
 8001fe8:	3304      	adds	r3, #4
 8001fea:	681b      	ldr	r3, [r3, #0]
 8001fec:	4619      	mov	r1, r3
 8001fee:	693b      	ldr	r3, [r7, #16]
 8001ff0:	4610      	mov	r0, r2
 8001ff2:	4798      	blx	r3
 8001ff4:	e007      	b.n	8002006 <InterruptHandle+0x5a>
            }
        } else {
            HWI_PROC_FUNC0 func = (HWI_PROC_FUNC0)hwiForm->hook;
 8001ff6:	687b      	ldr	r3, [r7, #4]
 8001ff8:	681b      	ldr	r3, [r3, #0]
 8001ffa:	60fb      	str	r3, [r7, #12]
            if (func != NULL) {
 8001ffc:	68fb      	ldr	r3, [r7, #12]
 8001ffe:	2b00      	cmp	r3, #0
 8002000:	d001      	beq.n	8002006 <InterruptHandle+0x5a>
                func();
 8002002:	68fb      	ldr	r3, [r7, #12]
 8002004:	4798      	blx	r3
    while (hwiForm->next != NULL) {
 8002006:	687b      	ldr	r3, [r7, #4]
 8002008:	689b      	ldr	r3, [r3, #8]
 800200a:	2b00      	cmp	r3, #0
 800200c:	d1d8      	bne.n	8001fc0 <InterruptHandle+0x14>
            }
        }
#ifdef LOSCFG_SHARED_IRQ
    }
#endif
}
 800200e:	bf00      	nop
 8002010:	bf00      	nop
 8002012:	3718      	adds	r7, #24
 8002014:	46bd      	mov	sp, r7
 8002016:	bd80      	pop	{r7, pc}

08002018 <OsIntHandle>:

VOID OsIntHandle(UINT32 hwiNum, HwiHandleInfo *hwiForm)
{
 8002018:	b590      	push	{r4, r7, lr}
 800201a:	b089      	sub	sp, #36	; 0x24
 800201c:	af00      	add	r7, sp, #0
 800201e:	6078      	str	r0, [r7, #4]
 8002020:	6039      	str	r1, [r7, #0]
 8002022:	4b3d      	ldr	r3, [pc, #244]	; (8002118 <OsIntHandle+0x100>)
 8002024:	681b      	ldr	r3, [r3, #0]
 8002026:	61fb      	str	r3, [r7, #28]
 8002028:	f04f 0300 	mov.w	r3, #0
    size_t *intCnt = NULL;
 800202c:	2300      	movs	r3, #0
 800202e:	60bb      	str	r3, [r7, #8]

#ifdef LOSCFG_CPUP_INCLUDE_IRQ
    OsCpupIrqStart();
 8002030:	f012 f9f2 	bl	8014418 <OsCpupIrqStart>
#endif
    intCnt = &g_intCount[ArchCurrCpuid()];
 8002034:	f7ff ff72 	bl	8001f1c <ArchCurrCpuid>
 8002038:	4603      	mov	r3, r0
 800203a:	009b      	lsls	r3, r3, #2
 800203c:	4a37      	ldr	r2, [pc, #220]	; (800211c <OsIntHandle+0x104>)
 800203e:	4413      	add	r3, r2
 8002040:	60bb      	str	r3, [r7, #8]
    *intCnt = *intCnt + 1;
 8002042:	68bb      	ldr	r3, [r7, #8]
 8002044:	681b      	ldr	r3, [r3, #0]
 8002046:	1c5a      	adds	r2, r3, #1
 8002048:	68bb      	ldr	r3, [r7, #8]
 800204a:	601a      	str	r2, [r3, #0]

#ifdef LOSCFG_DEBUG_SCHED_STATISTICS
    OsHwiStatistics(hwiNum);
 800204c:	6878      	ldr	r0, [r7, #4]
 800204e:	f004 fef3 	bl	8006e38 <OsHwiStatistics>
#endif

#ifdef LOSCFG_KERNEL_LOWPOWER
    if (g_intWakeupHook != NULL) {
 8002052:	4b33      	ldr	r3, [pc, #204]	; (8002120 <OsIntHandle+0x108>)
 8002054:	681b      	ldr	r3, [r3, #0]
 8002056:	2b00      	cmp	r3, #0
 8002058:	d003      	beq.n	8002062 <OsIntHandle+0x4a>
        g_intWakeupHook(hwiNum);
 800205a:	4b31      	ldr	r3, [pc, #196]	; (8002120 <OsIntHandle+0x108>)
 800205c:	681b      	ldr	r3, [r3, #0]
 800205e:	6878      	ldr	r0, [r7, #4]
 8002060:	4798      	blx	r3
    }
#endif
    LOS_TRACE(HWI_RESPONSE_IN, hwiNum);
 8002062:	2300      	movs	r3, #0
 8002064:	617b      	str	r3, [r7, #20]
 8002066:	687b      	ldr	r3, [r7, #4]
 8002068:	61bb      	str	r3, [r7, #24]
 800206a:	2302      	movs	r3, #2
 800206c:	60fb      	str	r3, [r7, #12]
 800206e:	68fb      	ldr	r3, [r7, #12]
 8002070:	2b01      	cmp	r3, #1
 8002072:	d915      	bls.n	80020a0 <OsIntHandle+0x88>
 8002074:	4b2b      	ldr	r3, [pc, #172]	; (8002124 <OsIntHandle+0x10c>)
 8002076:	681b      	ldr	r3, [r3, #0]
 8002078:	2b00      	cmp	r3, #0
 800207a:	d011      	beq.n	80020a0 <OsIntHandle+0x88>
 800207c:	4b29      	ldr	r3, [pc, #164]	; (8002124 <OsIntHandle+0x10c>)
 800207e:	681c      	ldr	r4, [r3, #0]
 8002080:	69b9      	ldr	r1, [r7, #24]
 8002082:	68fb      	ldr	r3, [r7, #12]
 8002084:	2b02      	cmp	r3, #2
 8002086:	d904      	bls.n	8002092 <OsIntHandle+0x7a>
 8002088:	f107 0314 	add.w	r3, r7, #20
 800208c:	f103 0208 	add.w	r2, r3, #8
 8002090:	e000      	b.n	8002094 <OsIntHandle+0x7c>
 8002092:	2200      	movs	r2, #0
 8002094:	68fb      	ldr	r3, [r7, #12]
 8002096:	b29b      	uxth	r3, r3
 8002098:	3b02      	subs	r3, #2
 800209a:	b29b      	uxth	r3, r3
 800209c:	2024      	movs	r0, #36	; 0x24
 800209e:	47a0      	blx	r4

    OsIrqNestingActive(hwiNum);
 80020a0:	6878      	ldr	r0, [r7, #4]
 80020a2:	f7ff ff6f 	bl	8001f84 <OsIrqNestingActive>
    InterruptHandle(hwiForm);
 80020a6:	6838      	ldr	r0, [r7, #0]
 80020a8:	f7ff ff80 	bl	8001fac <InterruptHandle>
    OsIrqNestingInactive(hwiNum);
 80020ac:	6878      	ldr	r0, [r7, #4]
 80020ae:	f7ff ff73 	bl	8001f98 <OsIrqNestingInactive>

    LOS_TRACE(HWI_RESPONSE_OUT, hwiNum);
 80020b2:	2300      	movs	r3, #0
 80020b4:	617b      	str	r3, [r7, #20]
 80020b6:	687b      	ldr	r3, [r7, #4]
 80020b8:	61bb      	str	r3, [r7, #24]
 80020ba:	2302      	movs	r3, #2
 80020bc:	613b      	str	r3, [r7, #16]
 80020be:	693b      	ldr	r3, [r7, #16]
 80020c0:	2b01      	cmp	r3, #1
 80020c2:	d915      	bls.n	80020f0 <OsIntHandle+0xd8>
 80020c4:	4b17      	ldr	r3, [pc, #92]	; (8002124 <OsIntHandle+0x10c>)
 80020c6:	681b      	ldr	r3, [r3, #0]
 80020c8:	2b00      	cmp	r3, #0
 80020ca:	d011      	beq.n	80020f0 <OsIntHandle+0xd8>
 80020cc:	4b15      	ldr	r3, [pc, #84]	; (8002124 <OsIntHandle+0x10c>)
 80020ce:	681c      	ldr	r4, [r3, #0]
 80020d0:	69b9      	ldr	r1, [r7, #24]
 80020d2:	693b      	ldr	r3, [r7, #16]
 80020d4:	2b02      	cmp	r3, #2
 80020d6:	d904      	bls.n	80020e2 <OsIntHandle+0xca>
 80020d8:	f107 0314 	add.w	r3, r7, #20
 80020dc:	f103 0208 	add.w	r2, r3, #8
 80020e0:	e000      	b.n	80020e4 <OsIntHandle+0xcc>
 80020e2:	2200      	movs	r2, #0
 80020e4:	693b      	ldr	r3, [r7, #16]
 80020e6:	b29b      	uxth	r3, r3
 80020e8:	3b02      	subs	r3, #2
 80020ea:	b29b      	uxth	r3, r3
 80020ec:	2025      	movs	r0, #37	; 0x25
 80020ee:	47a0      	blx	r4

    *intCnt = *intCnt - 1;
 80020f0:	68bb      	ldr	r3, [r7, #8]
 80020f2:	681b      	ldr	r3, [r3, #0]
 80020f4:	1e5a      	subs	r2, r3, #1
 80020f6:	68bb      	ldr	r3, [r7, #8]
 80020f8:	601a      	str	r2, [r3, #0]

#ifdef LOSCFG_CPUP_INCLUDE_IRQ
    OsCpupIrqEnd(hwiNum);
 80020fa:	6878      	ldr	r0, [r7, #4]
 80020fc:	f012 f99e 	bl	801443c <OsCpupIrqEnd>
#endif
}
 8002100:	bf00      	nop
 8002102:	4b05      	ldr	r3, [pc, #20]	; (8002118 <OsIntHandle+0x100>)
 8002104:	681a      	ldr	r2, [r3, #0]
 8002106:	69fb      	ldr	r3, [r7, #28]
 8002108:	405a      	eors	r2, r3
 800210a:	d001      	beq.n	8002110 <OsIntHandle+0xf8>
 800210c:	f002 f96c 	bl	80043e8 <__stack_chk_fail>
 8002110:	3724      	adds	r7, #36	; 0x24
 8002112:	46bd      	mov	sp, r7
 8002114:	bd90      	pop	{r4, r7, pc}
 8002116:	bf00      	nop
 8002118:	0802000c 	.word	0x0802000c
 800211c:	20000750 	.word	0x20000750
 8002120:	20000754 	.word	0x20000754
 8002124:	2000075c 	.word	0x2000075c

08002128 <OsHwiCpIrqParam>:
    }
    return;
}

STATIC HWI_ARG_T OsHwiCpIrqParam(const HWI_IRQ_PARAM_S *irqParam)
{
 8002128:	b580      	push	{r7, lr}
 800212a:	b084      	sub	sp, #16
 800212c:	af00      	add	r7, sp, #0
 800212e:	6078      	str	r0, [r7, #4]
    HWI_IRQ_PARAM_S *paramByAlloc = NULL;
 8002130:	2300      	movs	r3, #0
 8002132:	60fb      	str	r3, [r7, #12]

    paramByAlloc = (HWI_IRQ_PARAM_S *)LOS_MemAlloc(m_aucSysMem0, sizeof(HWI_IRQ_PARAM_S));
 8002134:	4b0a      	ldr	r3, [pc, #40]	; (8002160 <OsHwiCpIrqParam+0x38>)
 8002136:	681b      	ldr	r3, [r3, #0]
 8002138:	210c      	movs	r1, #12
 800213a:	4618      	mov	r0, r3
 800213c:	f006 fc34 	bl	80089a8 <LOS_MemAlloc>
 8002140:	60f8      	str	r0, [r7, #12]
    if (paramByAlloc != NULL) {
 8002142:	68fb      	ldr	r3, [r7, #12]
 8002144:	2b00      	cmp	r3, #0
 8002146:	d005      	beq.n	8002154 <OsHwiCpIrqParam+0x2c>
        (VOID)memcpy_s(paramByAlloc, sizeof(HWI_IRQ_PARAM_S), irqParam, sizeof(HWI_IRQ_PARAM_S));
 8002148:	230c      	movs	r3, #12
 800214a:	687a      	ldr	r2, [r7, #4]
 800214c:	210c      	movs	r1, #12
 800214e:	68f8      	ldr	r0, [r7, #12]
 8002150:	f014 fa24 	bl	801659c <memcpy_s>
    }

    return (HWI_ARG_T)paramByAlloc;
 8002154:	68fb      	ldr	r3, [r7, #12]
}
 8002156:	4618      	mov	r0, r3
 8002158:	3710      	adds	r7, #16
 800215a:	46bd      	mov	sp, r7
 800215c:	bd80      	pop	{r7, pc}
 800215e:	bf00      	nop
 8002160:	200021b4 	.word	0x200021b4

08002164 <OsFreeHwiNode>:
    HWI_UNLOCK(intSave);
    return LOS_OK;
}
#else /* LOSCFG_SHARED_IRQ */
STATIC INLINE UINT32 OsFreeHwiNode(HwiHandleInfo *head, HwiHandleInfo *hwiForm, UINT32 irqId)
{
 8002164:	b580      	push	{r7, lr}
 8002166:	b086      	sub	sp, #24
 8002168:	af00      	add	r7, sp, #0
 800216a:	60f8      	str	r0, [r7, #12]
 800216c:	60b9      	str	r1, [r7, #8]
 800216e:	607a      	str	r2, [r7, #4]
    UINT32 ret = LOS_OK;
 8002170:	2300      	movs	r3, #0
 8002172:	617b      	str	r3, [r7, #20]

    if (hwiForm->registerInfo != (HWI_ARG_T)NULL) {
 8002174:	68bb      	ldr	r3, [r7, #8]
 8002176:	685b      	ldr	r3, [r3, #4]
 8002178:	2b00      	cmp	r3, #0
 800217a:	d007      	beq.n	800218c <OsFreeHwiNode+0x28>
        (VOID)LOS_MemFree(m_aucSysMem0, (VOID *)hwiForm->registerInfo);
 800217c:	4b15      	ldr	r3, [pc, #84]	; (80021d4 <OsFreeHwiNode+0x70>)
 800217e:	681a      	ldr	r2, [r3, #0]
 8002180:	68bb      	ldr	r3, [r7, #8]
 8002182:	685b      	ldr	r3, [r3, #4]
 8002184:	4619      	mov	r1, r3
 8002186:	4610      	mov	r0, r2
 8002188:	f006 fcc6 	bl	8008b18 <LOS_MemFree>
    }

    (VOID)LOS_MemFree(m_aucSysMem0, hwiForm);
 800218c:	4b11      	ldr	r3, [pc, #68]	; (80021d4 <OsFreeHwiNode+0x70>)
 800218e:	681b      	ldr	r3, [r3, #0]
 8002190:	68b9      	ldr	r1, [r7, #8]
 8002192:	4618      	mov	r0, r3
 8002194:	f006 fcc0 	bl	8008b18 <LOS_MemFree>

    if (head->next == NULL) {
 8002198:	68fb      	ldr	r3, [r7, #12]
 800219a:	689b      	ldr	r3, [r3, #8]
 800219c:	2b00      	cmp	r3, #0
 800219e:	d113      	bne.n	80021c8 <OsFreeHwiNode+0x64>
        head->shareMode = 0;
 80021a0:	68fb      	ldr	r3, [r7, #12]
 80021a2:	2200      	movs	r2, #0
 80021a4:	605a      	str	r2, [r3, #4]
        head->respCount = 0;
 80021a6:	68fb      	ldr	r3, [r7, #12]
 80021a8:	2200      	movs	r2, #0
 80021aa:	60da      	str	r2, [r3, #12]
        if (g_hwiOps->disableIrq == NULL) {
 80021ac:	4b0a      	ldr	r3, [pc, #40]	; (80021d8 <OsFreeHwiNode+0x74>)
 80021ae:	681b      	ldr	r3, [r3, #0]
 80021b0:	68db      	ldr	r3, [r3, #12]
 80021b2:	2b00      	cmp	r3, #0
 80021b4:	d103      	bne.n	80021be <OsFreeHwiNode+0x5a>
            ret = LOS_ERRNO_HWI_PROC_FUNC_NULL;
 80021b6:	4b09      	ldr	r3, [pc, #36]	; (80021dc <OsFreeHwiNode+0x78>)
 80021b8:	617b      	str	r3, [r7, #20]
            return ret;
 80021ba:	697b      	ldr	r3, [r7, #20]
 80021bc:	e005      	b.n	80021ca <OsFreeHwiNode+0x66>
        }
        g_hwiOps->disableIrq(irqId);
 80021be:	4b06      	ldr	r3, [pc, #24]	; (80021d8 <OsFreeHwiNode+0x74>)
 80021c0:	681b      	ldr	r3, [r3, #0]
 80021c2:	68db      	ldr	r3, [r3, #12]
 80021c4:	6878      	ldr	r0, [r7, #4]
 80021c6:	4798      	blx	r3
    }

    return ret;
 80021c8:	697b      	ldr	r3, [r7, #20]
}
 80021ca:	4618      	mov	r0, r3
 80021cc:	3718      	adds	r7, #24
 80021ce:	46bd      	mov	sp, r7
 80021d0:	bd80      	pop	{r7, pc}
 80021d2:	bf00      	nop
 80021d4:	200021b4 	.word	0x200021b4
 80021d8:	20000758 	.word	0x20000758
 80021dc:	02000901 	.word	0x02000901

080021e0 <OsHwiDel>:

STATIC UINT32 OsHwiDel(HwiHandleInfo *head, const HWI_IRQ_PARAM_S *irqParam, UINT32 irqId)
{
 80021e0:	b580      	push	{r7, lr}
 80021e2:	b08a      	sub	sp, #40	; 0x28
 80021e4:	af00      	add	r7, sp, #0
 80021e6:	60f8      	str	r0, [r7, #12]
 80021e8:	60b9      	str	r1, [r7, #8]
 80021ea:	607a      	str	r2, [r7, #4]
 80021ec:	4b41      	ldr	r3, [pc, #260]	; (80022f4 <OsHwiDel+0x114>)
 80021ee:	681b      	ldr	r3, [r3, #0]
 80021f0:	627b      	str	r3, [r7, #36]	; 0x24
 80021f2:	f04f 0300 	mov.w	r3, #0
    HwiHandleInfo *hwiFormPrev = NULL;
 80021f6:	2300      	movs	r3, #0
 80021f8:	61bb      	str	r3, [r7, #24]
    HwiHandleInfo *hwiForm = NULL;
 80021fa:	2300      	movs	r3, #0
 80021fc:	61fb      	str	r3, [r7, #28]
    UINT32 intSave;
    UINT32 ret;

    HWI_LOCK(intSave);
 80021fe:	f107 0314 	add.w	r3, r7, #20
 8002202:	4619      	mov	r1, r3
 8002204:	483c      	ldr	r0, [pc, #240]	; (80022f8 <OsHwiDel+0x118>)
 8002206:	f7ff fea3 	bl	8001f50 <LOS_SpinLockSave>

    if ((head->shareMode & IRQF_SHARED) && ((irqParam == NULL) || (irqParam->pDevId == NULL))) {
 800220a:	68fb      	ldr	r3, [r7, #12]
 800220c:	685b      	ldr	r3, [r3, #4]
 800220e:	f403 4300 	and.w	r3, r3, #32768	; 0x8000
 8002212:	2b00      	cmp	r3, #0
 8002214:	d00d      	beq.n	8002232 <OsHwiDel+0x52>
 8002216:	68bb      	ldr	r3, [r7, #8]
 8002218:	2b00      	cmp	r3, #0
 800221a:	d003      	beq.n	8002224 <OsHwiDel+0x44>
 800221c:	68bb      	ldr	r3, [r7, #8]
 800221e:	685b      	ldr	r3, [r3, #4]
 8002220:	2b00      	cmp	r3, #0
 8002222:	d106      	bne.n	8002232 <OsHwiDel+0x52>
        HWI_UNLOCK(intSave);
 8002224:	697b      	ldr	r3, [r7, #20]
 8002226:	4619      	mov	r1, r3
 8002228:	4833      	ldr	r0, [pc, #204]	; (80022f8 <OsHwiDel+0x118>)
 800222a:	f7ff fe9f 	bl	8001f6c <LOS_SpinUnlockRestore>
        return LOS_ERRNO_HWI_SHARED_ERROR;
 800222e:	4b33      	ldr	r3, [pc, #204]	; (80022fc <OsHwiDel+0x11c>)
 8002230:	e054      	b.n	80022dc <OsHwiDel+0xfc>
    }

    /* Non-shared interrupt. */
    if (!(head->shareMode & IRQF_SHARED)) {
 8002232:	68fb      	ldr	r3, [r7, #12]
 8002234:	685b      	ldr	r3, [r3, #4]
 8002236:	f403 4300 	and.w	r3, r3, #32768	; 0x8000
 800223a:	2b00      	cmp	r3, #0
 800223c:	d11d      	bne.n	800227a <OsHwiDel+0x9a>
        if (head->next == NULL) {
 800223e:	68fb      	ldr	r3, [r7, #12]
 8002240:	689b      	ldr	r3, [r3, #8]
 8002242:	2b00      	cmp	r3, #0
 8002244:	d106      	bne.n	8002254 <OsHwiDel+0x74>
            HWI_UNLOCK(intSave);
 8002246:	697b      	ldr	r3, [r7, #20]
 8002248:	4619      	mov	r1, r3
 800224a:	482b      	ldr	r0, [pc, #172]	; (80022f8 <OsHwiDel+0x118>)
 800224c:	f7ff fe8e 	bl	8001f6c <LOS_SpinUnlockRestore>
            return LOS_ERRNO_HWI_HWINUM_UNCREATE;
 8002250:	4b2b      	ldr	r3, [pc, #172]	; (8002300 <OsHwiDel+0x120>)
 8002252:	e043      	b.n	80022dc <OsHwiDel+0xfc>
        }

        hwiForm = head->next;
 8002254:	68fb      	ldr	r3, [r7, #12]
 8002256:	689b      	ldr	r3, [r3, #8]
 8002258:	61fb      	str	r3, [r7, #28]
        head->next = NULL;
 800225a:	68fb      	ldr	r3, [r7, #12]
 800225c:	2200      	movs	r2, #0
 800225e:	609a      	str	r2, [r3, #8]
        ret = OsFreeHwiNode(head, hwiForm, irqId);
 8002260:	687a      	ldr	r2, [r7, #4]
 8002262:	69f9      	ldr	r1, [r7, #28]
 8002264:	68f8      	ldr	r0, [r7, #12]
 8002266:	f7ff ff7d 	bl	8002164 <OsFreeHwiNode>
 800226a:	6238      	str	r0, [r7, #32]
        HWI_UNLOCK(intSave);
 800226c:	697b      	ldr	r3, [r7, #20]
 800226e:	4619      	mov	r1, r3
 8002270:	4821      	ldr	r0, [pc, #132]	; (80022f8 <OsHwiDel+0x118>)
 8002272:	f7ff fe7b 	bl	8001f6c <LOS_SpinUnlockRestore>
        return ret;
 8002276:	6a3b      	ldr	r3, [r7, #32]
 8002278:	e030      	b.n	80022dc <OsHwiDel+0xfc>
    }

    /* Shared interrupt. */
    hwiFormPrev = head;
 800227a:	68fb      	ldr	r3, [r7, #12]
 800227c:	61bb      	str	r3, [r7, #24]
    hwiForm = head->next;
 800227e:	68fb      	ldr	r3, [r7, #12]
 8002280:	689b      	ldr	r3, [r3, #8]
 8002282:	61fb      	str	r3, [r7, #28]
    while (hwiForm != NULL) {
 8002284:	e00b      	b.n	800229e <OsHwiDel+0xbe>
        if (((HWI_IRQ_PARAM_S *)(hwiForm->registerInfo))->pDevId == irqParam->pDevId) {
 8002286:	69fb      	ldr	r3, [r7, #28]
 8002288:	685b      	ldr	r3, [r3, #4]
 800228a:	685a      	ldr	r2, [r3, #4]
 800228c:	68bb      	ldr	r3, [r7, #8]
 800228e:	685b      	ldr	r3, [r3, #4]
 8002290:	429a      	cmp	r2, r3
 8002292:	d008      	beq.n	80022a6 <OsHwiDel+0xc6>
            break;
        }
        hwiFormPrev = hwiForm;
 8002294:	69fb      	ldr	r3, [r7, #28]
 8002296:	61bb      	str	r3, [r7, #24]
        hwiForm = hwiForm->next;
 8002298:	69fb      	ldr	r3, [r7, #28]
 800229a:	689b      	ldr	r3, [r3, #8]
 800229c:	61fb      	str	r3, [r7, #28]
    while (hwiForm != NULL) {
 800229e:	69fb      	ldr	r3, [r7, #28]
 80022a0:	2b00      	cmp	r3, #0
 80022a2:	d1f0      	bne.n	8002286 <OsHwiDel+0xa6>
 80022a4:	e000      	b.n	80022a8 <OsHwiDel+0xc8>
            break;
 80022a6:	bf00      	nop
    }

    if (hwiForm == NULL) {
 80022a8:	69fb      	ldr	r3, [r7, #28]
 80022aa:	2b00      	cmp	r3, #0
 80022ac:	d106      	bne.n	80022bc <OsHwiDel+0xdc>
        HWI_UNLOCK(intSave);
 80022ae:	697b      	ldr	r3, [r7, #20]
 80022b0:	4619      	mov	r1, r3
 80022b2:	4811      	ldr	r0, [pc, #68]	; (80022f8 <OsHwiDel+0x118>)
 80022b4:	f7ff fe5a 	bl	8001f6c <LOS_SpinUnlockRestore>
        return LOS_ERRNO_HWI_HWINUM_UNCREATE;
 80022b8:	4b11      	ldr	r3, [pc, #68]	; (8002300 <OsHwiDel+0x120>)
 80022ba:	e00f      	b.n	80022dc <OsHwiDel+0xfc>
    }

    hwiFormPrev->next = hwiForm->next;
 80022bc:	69fb      	ldr	r3, [r7, #28]
 80022be:	689a      	ldr	r2, [r3, #8]
 80022c0:	69bb      	ldr	r3, [r7, #24]
 80022c2:	609a      	str	r2, [r3, #8]
    ret = OsFreeHwiNode(head, hwiForm, irqId);
 80022c4:	687a      	ldr	r2, [r7, #4]
 80022c6:	69f9      	ldr	r1, [r7, #28]
 80022c8:	68f8      	ldr	r0, [r7, #12]
 80022ca:	f7ff ff4b 	bl	8002164 <OsFreeHwiNode>
 80022ce:	6238      	str	r0, [r7, #32]
    HWI_UNLOCK(intSave);
 80022d0:	697b      	ldr	r3, [r7, #20]
 80022d2:	4619      	mov	r1, r3
 80022d4:	4808      	ldr	r0, [pc, #32]	; (80022f8 <OsHwiDel+0x118>)
 80022d6:	f7ff fe49 	bl	8001f6c <LOS_SpinUnlockRestore>
    return ret;
 80022da:	6a3b      	ldr	r3, [r7, #32]
}
 80022dc:	4a05      	ldr	r2, [pc, #20]	; (80022f4 <OsHwiDel+0x114>)
 80022de:	6811      	ldr	r1, [r2, #0]
 80022e0:	6a7a      	ldr	r2, [r7, #36]	; 0x24
 80022e2:	4051      	eors	r1, r2
 80022e4:	d001      	beq.n	80022ea <OsHwiDel+0x10a>
 80022e6:	f002 f87f 	bl	80043e8 <__stack_chk_fail>
 80022ea:	4618      	mov	r0, r3
 80022ec:	3728      	adds	r7, #40	; 0x28
 80022ee:	46bd      	mov	sp, r7
 80022f0:	bd80      	pop	{r7, pc}
 80022f2:	bf00      	nop
 80022f4:	08020010 	.word	0x08020010
 80022f8:	2000074c 	.word	0x2000074c
 80022fc:	02000909 	.word	0x02000909
 8002300:	0200090b 	.word	0x0200090b

08002304 <OsHwiCreate>:

STATIC UINT32 OsHwiCreate(HwiHandleInfo *head, HWI_MODE_T hwiMode, HWI_PROC_FUNC hwiHandler,
                          const HWI_IRQ_PARAM_S *irqParam)
{
 8002304:	b580      	push	{r7, lr}
 8002306:	b08a      	sub	sp, #40	; 0x28
 8002308:	af00      	add	r7, sp, #0
 800230a:	60f8      	str	r0, [r7, #12]
 800230c:	607a      	str	r2, [r7, #4]
 800230e:	603b      	str	r3, [r7, #0]
 8002310:	460b      	mov	r3, r1
 8002312:	817b      	strh	r3, [r7, #10]
 8002314:	4b4f      	ldr	r3, [pc, #316]	; (8002454 <OsHwiCreate+0x150>)
 8002316:	681b      	ldr	r3, [r3, #0]
 8002318:	627b      	str	r3, [r7, #36]	; 0x24
 800231a:	f04f 0300 	mov.w	r3, #0
    UINT32 intSave;
    HwiHandleInfo *hwiFormNode = NULL;
 800231e:	2300      	movs	r3, #0
 8002320:	61fb      	str	r3, [r7, #28]
    HWI_IRQ_PARAM_S *hwiParam = NULL;
 8002322:	2300      	movs	r3, #0
 8002324:	623b      	str	r3, [r7, #32]
    HWI_MODE_T modeResult = hwiMode & IRQF_SHARED;
 8002326:	897b      	ldrh	r3, [r7, #10]
 8002328:	f423 43ff 	bic.w	r3, r3, #32640	; 0x7f80
 800232c:	f023 037f 	bic.w	r3, r3, #127	; 0x7f
 8002330:	827b      	strh	r3, [r7, #18]
    HwiHandleInfo *hwiForm = NULL;
 8002332:	2300      	movs	r3, #0
 8002334:	61bb      	str	r3, [r7, #24]

    if (modeResult && ((irqParam == NULL) || (irqParam->pDevId == NULL))) {
 8002336:	8a7b      	ldrh	r3, [r7, #18]
 8002338:	2b00      	cmp	r3, #0
 800233a:	d008      	beq.n	800234e <OsHwiCreate+0x4a>
 800233c:	683b      	ldr	r3, [r7, #0]
 800233e:	2b00      	cmp	r3, #0
 8002340:	d003      	beq.n	800234a <OsHwiCreate+0x46>
 8002342:	683b      	ldr	r3, [r7, #0]
 8002344:	685b      	ldr	r3, [r3, #4]
 8002346:	2b00      	cmp	r3, #0
 8002348:	d101      	bne.n	800234e <OsHwiCreate+0x4a>
        return LOS_ERRNO_HWI_SHARED_ERROR;
 800234a:	4b43      	ldr	r3, [pc, #268]	; (8002458 <OsHwiCreate+0x154>)
 800234c:	e076      	b.n	800243c <OsHwiCreate+0x138>
    }

    HWI_LOCK(intSave);
 800234e:	f107 0314 	add.w	r3, r7, #20
 8002352:	4619      	mov	r1, r3
 8002354:	4841      	ldr	r0, [pc, #260]	; (800245c <OsHwiCreate+0x158>)
 8002356:	f7ff fdfb 	bl	8001f50 <LOS_SpinLockSave>

    if ((head->next != NULL) && ((modeResult == 0) || (!(head->shareMode & IRQF_SHARED)))) {
 800235a:	68fb      	ldr	r3, [r7, #12]
 800235c:	689b      	ldr	r3, [r3, #8]
 800235e:	2b00      	cmp	r3, #0
 8002360:	d00f      	beq.n	8002382 <OsHwiCreate+0x7e>
 8002362:	8a7b      	ldrh	r3, [r7, #18]
 8002364:	2b00      	cmp	r3, #0
 8002366:	d005      	beq.n	8002374 <OsHwiCreate+0x70>
 8002368:	68fb      	ldr	r3, [r7, #12]
 800236a:	685b      	ldr	r3, [r3, #4]
 800236c:	f403 4300 	and.w	r3, r3, #32768	; 0x8000
 8002370:	2b00      	cmp	r3, #0
 8002372:	d106      	bne.n	8002382 <OsHwiCreate+0x7e>
        HWI_UNLOCK(intSave);
 8002374:	697b      	ldr	r3, [r7, #20]
 8002376:	4619      	mov	r1, r3
 8002378:	4838      	ldr	r0, [pc, #224]	; (800245c <OsHwiCreate+0x158>)
 800237a:	f7ff fdf7 	bl	8001f6c <LOS_SpinUnlockRestore>
        return LOS_ERRNO_HWI_SHARED_ERROR;
 800237e:	4b36      	ldr	r3, [pc, #216]	; (8002458 <OsHwiCreate+0x154>)
 8002380:	e05c      	b.n	800243c <OsHwiCreate+0x138>
    }

    hwiForm = head;
 8002382:	68fb      	ldr	r3, [r7, #12]
 8002384:	61bb      	str	r3, [r7, #24]
    while (hwiForm->next != NULL) {
 8002386:	e012      	b.n	80023ae <OsHwiCreate+0xaa>
        hwiForm = hwiForm->next;
 8002388:	69bb      	ldr	r3, [r7, #24]
 800238a:	689b      	ldr	r3, [r3, #8]
 800238c:	61bb      	str	r3, [r7, #24]
        hwiParam = (HWI_IRQ_PARAM_S *)(hwiForm->registerInfo);
 800238e:	69bb      	ldr	r3, [r7, #24]
 8002390:	685b      	ldr	r3, [r3, #4]
 8002392:	623b      	str	r3, [r7, #32]
        if (hwiParam->pDevId == irqParam->pDevId) {
 8002394:	6a3b      	ldr	r3, [r7, #32]
 8002396:	685a      	ldr	r2, [r3, #4]
 8002398:	683b      	ldr	r3, [r7, #0]
 800239a:	685b      	ldr	r3, [r3, #4]
 800239c:	429a      	cmp	r2, r3
 800239e:	d106      	bne.n	80023ae <OsHwiCreate+0xaa>
            HWI_UNLOCK(intSave);
 80023a0:	697b      	ldr	r3, [r7, #20]
 80023a2:	4619      	mov	r1, r3
 80023a4:	482d      	ldr	r0, [pc, #180]	; (800245c <OsHwiCreate+0x158>)
 80023a6:	f7ff fde1 	bl	8001f6c <LOS_SpinUnlockRestore>
            return LOS_ERRNO_HWI_ALREADY_CREATED;
 80023aa:	4b2d      	ldr	r3, [pc, #180]	; (8002460 <OsHwiCreate+0x15c>)
 80023ac:	e046      	b.n	800243c <OsHwiCreate+0x138>
    while (hwiForm->next != NULL) {
 80023ae:	69bb      	ldr	r3, [r7, #24]
 80023b0:	689b      	ldr	r3, [r3, #8]
 80023b2:	2b00      	cmp	r3, #0
 80023b4:	d1e8      	bne.n	8002388 <OsHwiCreate+0x84>
        }
    }

    hwiFormNode = (HwiHandleInfo *)LOS_MemAlloc(m_aucSysMem0, sizeof(HwiHandleInfo));
 80023b6:	4b2b      	ldr	r3, [pc, #172]	; (8002464 <OsHwiCreate+0x160>)
 80023b8:	681b      	ldr	r3, [r3, #0]
 80023ba:	2110      	movs	r1, #16
 80023bc:	4618      	mov	r0, r3
 80023be:	f006 faf3 	bl	80089a8 <LOS_MemAlloc>
 80023c2:	61f8      	str	r0, [r7, #28]
    if (hwiFormNode == NULL) {
 80023c4:	69fb      	ldr	r3, [r7, #28]
 80023c6:	2b00      	cmp	r3, #0
 80023c8:	d106      	bne.n	80023d8 <OsHwiCreate+0xd4>
        HWI_UNLOCK(intSave);
 80023ca:	697b      	ldr	r3, [r7, #20]
 80023cc:	4619      	mov	r1, r3
 80023ce:	4823      	ldr	r0, [pc, #140]	; (800245c <OsHwiCreate+0x158>)
 80023d0:	f7ff fdcc 	bl	8001f6c <LOS_SpinUnlockRestore>
        return LOS_ERRNO_HWI_NO_MEMORY;
 80023d4:	4b24      	ldr	r3, [pc, #144]	; (8002468 <OsHwiCreate+0x164>)
 80023d6:	e031      	b.n	800243c <OsHwiCreate+0x138>
    }
    hwiForm->respCount = 0;
 80023d8:	69bb      	ldr	r3, [r7, #24]
 80023da:	2200      	movs	r2, #0
 80023dc:	60da      	str	r2, [r3, #12]

    if (irqParam != NULL) {
 80023de:	683b      	ldr	r3, [r7, #0]
 80023e0:	2b00      	cmp	r3, #0
 80023e2:	d016      	beq.n	8002412 <OsHwiCreate+0x10e>
        hwiFormNode->registerInfo = OsHwiCpIrqParam(irqParam);
 80023e4:	6838      	ldr	r0, [r7, #0]
 80023e6:	f7ff fe9f 	bl	8002128 <OsHwiCpIrqParam>
 80023ea:	4602      	mov	r2, r0
 80023ec:	69fb      	ldr	r3, [r7, #28]
 80023ee:	605a      	str	r2, [r3, #4]
        if (hwiFormNode->registerInfo == (HWI_ARG_T)NULL) {
 80023f0:	69fb      	ldr	r3, [r7, #28]
 80023f2:	685b      	ldr	r3, [r3, #4]
 80023f4:	2b00      	cmp	r3, #0
 80023f6:	d10f      	bne.n	8002418 <OsHwiCreate+0x114>
            HWI_UNLOCK(intSave);
 80023f8:	697b      	ldr	r3, [r7, #20]
 80023fa:	4619      	mov	r1, r3
 80023fc:	4817      	ldr	r0, [pc, #92]	; (800245c <OsHwiCreate+0x158>)
 80023fe:	f7ff fdb5 	bl	8001f6c <LOS_SpinUnlockRestore>
            (VOID) LOS_MemFree(m_aucSysMem0, hwiFormNode);
 8002402:	4b18      	ldr	r3, [pc, #96]	; (8002464 <OsHwiCreate+0x160>)
 8002404:	681b      	ldr	r3, [r3, #0]
 8002406:	69f9      	ldr	r1, [r7, #28]
 8002408:	4618      	mov	r0, r3
 800240a:	f006 fb85 	bl	8008b18 <LOS_MemFree>
            return LOS_ERRNO_HWI_NO_MEMORY;
 800240e:	4b16      	ldr	r3, [pc, #88]	; (8002468 <OsHwiCreate+0x164>)
 8002410:	e014      	b.n	800243c <OsHwiCreate+0x138>
        }
    } else {
        hwiFormNode->registerInfo = 0;
 8002412:	69fb      	ldr	r3, [r7, #28]
 8002414:	2200      	movs	r2, #0
 8002416:	605a      	str	r2, [r3, #4]
    }

    hwiFormNode->hook = hwiHandler;
 8002418:	69fb      	ldr	r3, [r7, #28]
 800241a:	687a      	ldr	r2, [r7, #4]
 800241c:	601a      	str	r2, [r3, #0]
    hwiFormNode->next = (struct tagHwiHandleForm *)NULL;
 800241e:	69fb      	ldr	r3, [r7, #28]
 8002420:	2200      	movs	r2, #0
 8002422:	609a      	str	r2, [r3, #8]
    hwiForm->next = hwiFormNode;
 8002424:	69bb      	ldr	r3, [r7, #24]
 8002426:	69fa      	ldr	r2, [r7, #28]
 8002428:	609a      	str	r2, [r3, #8]

    head->shareMode = modeResult;
 800242a:	8a7a      	ldrh	r2, [r7, #18]
 800242c:	68fb      	ldr	r3, [r7, #12]
 800242e:	605a      	str	r2, [r3, #4]

    HWI_UNLOCK(intSave);
 8002430:	697b      	ldr	r3, [r7, #20]
 8002432:	4619      	mov	r1, r3
 8002434:	4809      	ldr	r0, [pc, #36]	; (800245c <OsHwiCreate+0x158>)
 8002436:	f7ff fd99 	bl	8001f6c <LOS_SpinUnlockRestore>
    return LOS_OK;
 800243a:	2300      	movs	r3, #0
}
 800243c:	4a05      	ldr	r2, [pc, #20]	; (8002454 <OsHwiCreate+0x150>)
 800243e:	6811      	ldr	r1, [r2, #0]
 8002440:	6a7a      	ldr	r2, [r7, #36]	; 0x24
 8002442:	4051      	eors	r1, r2
 8002444:	d001      	beq.n	800244a <OsHwiCreate+0x146>
 8002446:	f001 ffcf 	bl	80043e8 <__stack_chk_fail>
 800244a:	4618      	mov	r0, r3
 800244c:	3728      	adds	r7, #40	; 0x28
 800244e:	46bd      	mov	sp, r7
 8002450:	bd80      	pop	{r7, pc}
 8002452:	bf00      	nop
 8002454:	08020014 	.word	0x08020014
 8002458:	02000909 	.word	0x02000909
 800245c:	2000074c 	.word	0x2000074c
 8002460:	02000904 	.word	0x02000904
 8002464:	200021b4 	.word	0x200021b4
 8002468:	02000903 	.word	0x02000903

0800246c <IntActive>:
#endif

size_t IntActive()
{
 800246c:	b580      	push	{r7, lr}
 800246e:	b082      	sub	sp, #8
 8002470:	af00      	add	r7, sp, #0
    size_t intCount;
    UINT32 intSave = LOS_IntLock();
 8002472:	f7ff fd5b 	bl	8001f2c <LOS_IntLock>
 8002476:	6038      	str	r0, [r7, #0]

    intCount = g_intCount[ArchCurrCpuid()];
 8002478:	f7ff fd50 	bl	8001f1c <ArchCurrCpuid>
 800247c:	4603      	mov	r3, r0
 800247e:	4a06      	ldr	r2, [pc, #24]	; (8002498 <IntActive+0x2c>)
 8002480:	f852 3023 	ldr.w	r3, [r2, r3, lsl #2]
 8002484:	607b      	str	r3, [r7, #4]
    LOS_IntRestore(intSave);
 8002486:	6838      	ldr	r0, [r7, #0]
 8002488:	f7ff fd57 	bl	8001f3a <LOS_IntRestore>
    return intCount;
 800248c:	687b      	ldr	r3, [r7, #4]
}
 800248e:	4618      	mov	r0, r3
 8002490:	3708      	adds	r7, #8
 8002492:	46bd      	mov	sp, r7
 8002494:	bd80      	pop	{r7, pc}
 8002496:	bf00      	nop
 8002498:	20000750 	.word	0x20000750

0800249c <LOS_HwiCreate>:
LITE_OS_SEC_TEXT UINT32 LOS_HwiCreate(HWI_HANDLE_T hwiNum,
                                           HWI_PRIOR_T hwiPrio,
                                           HWI_MODE_T hwiMode,
                                           HWI_PROC_FUNC hwiHandler,
                                           HWI_IRQ_PARAM_S *irqParam)
{
 800249c:	b590      	push	{r4, r7, lr}
 800249e:	b08f      	sub	sp, #60	; 0x3c
 80024a0:	af00      	add	r7, sp, #0
 80024a2:	60f8      	str	r0, [r7, #12]
 80024a4:	607b      	str	r3, [r7, #4]
 80024a6:	460b      	mov	r3, r1
 80024a8:	817b      	strh	r3, [r7, #10]
 80024aa:	4613      	mov	r3, r2
 80024ac:	813b      	strh	r3, [r7, #8]
 80024ae:	6cbb      	ldr	r3, [r7, #72]	; 0x48
 80024b0:	603b      	str	r3, [r7, #0]
 80024b2:	4b4e      	ldr	r3, [pc, #312]	; (80025ec <LOS_HwiCreate+0x150>)
 80024b4:	681b      	ldr	r3, [r3, #0]
 80024b6:	637b      	str	r3, [r7, #52]	; 0x34
 80024b8:	f04f 0300 	mov.w	r3, #0
    UINT32 ret;
    HwiHandleInfo *hwiForm = NULL;
 80024bc:	2300      	movs	r3, #0
 80024be:	617b      	str	r3, [r7, #20]

    if (hwiHandler == NULL) {
 80024c0:	687b      	ldr	r3, [r7, #4]
 80024c2:	2b00      	cmp	r3, #0
 80024c4:	d101      	bne.n	80024ca <LOS_HwiCreate+0x2e>
        return LOS_ERRNO_HWI_PROC_FUNC_NULL;
 80024c6:	4b4a      	ldr	r3, [pc, #296]	; (80025f0 <LOS_HwiCreate+0x154>)
 80024c8:	e084      	b.n	80025d4 <LOS_HwiCreate+0x138>
    }

    if ((g_hwiOps == NULL) || (g_hwiOps->getHandleForm == NULL)) {
 80024ca:	4b4a      	ldr	r3, [pc, #296]	; (80025f4 <LOS_HwiCreate+0x158>)
 80024cc:	681b      	ldr	r3, [r3, #0]
 80024ce:	2b00      	cmp	r3, #0
 80024d0:	d004      	beq.n	80024dc <LOS_HwiCreate+0x40>
 80024d2:	4b48      	ldr	r3, [pc, #288]	; (80025f4 <LOS_HwiCreate+0x158>)
 80024d4:	681b      	ldr	r3, [r3, #0]
 80024d6:	69db      	ldr	r3, [r3, #28]
 80024d8:	2b00      	cmp	r3, #0
 80024da:	d101      	bne.n	80024e0 <LOS_HwiCreate+0x44>
        return LOS_ERRNO_HWI_PROC_FUNC_NULL;
 80024dc:	4b44      	ldr	r3, [pc, #272]	; (80025f0 <LOS_HwiCreate+0x154>)
 80024de:	e079      	b.n	80025d4 <LOS_HwiCreate+0x138>
    }

    hwiForm = g_hwiOps->getHandleForm(hwiNum);
 80024e0:	4b44      	ldr	r3, [pc, #272]	; (80025f4 <LOS_HwiCreate+0x158>)
 80024e2:	681b      	ldr	r3, [r3, #0]
 80024e4:	69db      	ldr	r3, [r3, #28]
 80024e6:	68f8      	ldr	r0, [r7, #12]
 80024e8:	4798      	blx	r3
 80024ea:	6178      	str	r0, [r7, #20]
    if (hwiForm == NULL) {
 80024ec:	697b      	ldr	r3, [r7, #20]
 80024ee:	2b00      	cmp	r3, #0
 80024f0:	d101      	bne.n	80024f6 <LOS_HwiCreate+0x5a>
        return LOS_ERRNO_HWI_NUM_INVALID;
 80024f2:	4b41      	ldr	r3, [pc, #260]	; (80025f8 <LOS_HwiCreate+0x15c>)
 80024f4:	e06e      	b.n	80025d4 <LOS_HwiCreate+0x138>
    }
    LOS_TRACE(HWI_CREATE, hwiNum, hwiPrio, hwiMode, (UINTPTR)hwiHandler);
 80024f6:	2300      	movs	r3, #0
 80024f8:	623b      	str	r3, [r7, #32]
 80024fa:	68fb      	ldr	r3, [r7, #12]
 80024fc:	627b      	str	r3, [r7, #36]	; 0x24
 80024fe:	897b      	ldrh	r3, [r7, #10]
 8002500:	62bb      	str	r3, [r7, #40]	; 0x28
 8002502:	893b      	ldrh	r3, [r7, #8]
 8002504:	62fb      	str	r3, [r7, #44]	; 0x2c
 8002506:	687b      	ldr	r3, [r7, #4]
 8002508:	633b      	str	r3, [r7, #48]	; 0x30
 800250a:	2305      	movs	r3, #5
 800250c:	61bb      	str	r3, [r7, #24]
 800250e:	69bb      	ldr	r3, [r7, #24]
 8002510:	2b01      	cmp	r3, #1
 8002512:	d915      	bls.n	8002540 <LOS_HwiCreate+0xa4>
 8002514:	4b39      	ldr	r3, [pc, #228]	; (80025fc <LOS_HwiCreate+0x160>)
 8002516:	681b      	ldr	r3, [r3, #0]
 8002518:	2b00      	cmp	r3, #0
 800251a:	d011      	beq.n	8002540 <LOS_HwiCreate+0xa4>
 800251c:	4b37      	ldr	r3, [pc, #220]	; (80025fc <LOS_HwiCreate+0x160>)
 800251e:	681c      	ldr	r4, [r3, #0]
 8002520:	6a79      	ldr	r1, [r7, #36]	; 0x24
 8002522:	69bb      	ldr	r3, [r7, #24]
 8002524:	2b02      	cmp	r3, #2
 8002526:	d904      	bls.n	8002532 <LOS_HwiCreate+0x96>
 8002528:	f107 0320 	add.w	r3, r7, #32
 800252c:	f103 0208 	add.w	r2, r3, #8
 8002530:	e000      	b.n	8002534 <LOS_HwiCreate+0x98>
 8002532:	2200      	movs	r2, #0
 8002534:	69bb      	ldr	r3, [r7, #24]
 8002536:	b29b      	uxth	r3, r3
 8002538:	3b02      	subs	r3, #2
 800253a:	b29b      	uxth	r3, r3
 800253c:	2020      	movs	r0, #32
 800253e:	47a0      	blx	r4

    ret = OsHwiCreate(hwiForm, hwiMode, hwiHandler, irqParam);
 8002540:	8939      	ldrh	r1, [r7, #8]
 8002542:	683b      	ldr	r3, [r7, #0]
 8002544:	687a      	ldr	r2, [r7, #4]
 8002546:	6978      	ldr	r0, [r7, #20]
 8002548:	f7ff fedc 	bl	8002304 <OsHwiCreate>
 800254c:	6138      	str	r0, [r7, #16]
    LOS_TRACE(HWI_CREATE_SHARE, hwiNum, (UINTPTR)(irqParam != NULL ? irqParam->pDevId : NULL), ret);
 800254e:	2300      	movs	r3, #0
 8002550:	623b      	str	r3, [r7, #32]
 8002552:	68fb      	ldr	r3, [r7, #12]
 8002554:	627b      	str	r3, [r7, #36]	; 0x24
 8002556:	683b      	ldr	r3, [r7, #0]
 8002558:	2b00      	cmp	r3, #0
 800255a:	d002      	beq.n	8002562 <LOS_HwiCreate+0xc6>
 800255c:	683b      	ldr	r3, [r7, #0]
 800255e:	685b      	ldr	r3, [r3, #4]
 8002560:	e000      	b.n	8002564 <LOS_HwiCreate+0xc8>
 8002562:	2300      	movs	r3, #0
 8002564:	62bb      	str	r3, [r7, #40]	; 0x28
 8002566:	693b      	ldr	r3, [r7, #16]
 8002568:	62fb      	str	r3, [r7, #44]	; 0x2c
 800256a:	2304      	movs	r3, #4
 800256c:	61fb      	str	r3, [r7, #28]
 800256e:	69fb      	ldr	r3, [r7, #28]
 8002570:	2b01      	cmp	r3, #1
 8002572:	d915      	bls.n	80025a0 <LOS_HwiCreate+0x104>
 8002574:	4b21      	ldr	r3, [pc, #132]	; (80025fc <LOS_HwiCreate+0x160>)
 8002576:	681b      	ldr	r3, [r3, #0]
 8002578:	2b00      	cmp	r3, #0
 800257a:	d011      	beq.n	80025a0 <LOS_HwiCreate+0x104>
 800257c:	4b1f      	ldr	r3, [pc, #124]	; (80025fc <LOS_HwiCreate+0x160>)
 800257e:	681c      	ldr	r4, [r3, #0]
 8002580:	6a79      	ldr	r1, [r7, #36]	; 0x24
 8002582:	69fb      	ldr	r3, [r7, #28]
 8002584:	2b02      	cmp	r3, #2
 8002586:	d904      	bls.n	8002592 <LOS_HwiCreate+0xf6>
 8002588:	f107 0320 	add.w	r3, r7, #32
 800258c:	f103 0208 	add.w	r2, r3, #8
 8002590:	e000      	b.n	8002594 <LOS_HwiCreate+0xf8>
 8002592:	2200      	movs	r2, #0
 8002594:	69fb      	ldr	r3, [r7, #28]
 8002596:	b29b      	uxth	r3, r3
 8002598:	3b02      	subs	r3, #2
 800259a:	b29b      	uxth	r3, r3
 800259c:	2021      	movs	r0, #33	; 0x21
 800259e:	47a0      	blx	r4

    /* priority will be changed if setIrqPriority implemented,
     * but interrupt preemption only allowed when LOSCFG_ARCH_INTERRUPT_PREEMPTION enable */
    if ((ret == LOS_OK) && (g_hwiOps->setIrqPriority != NULL)) {
 80025a0:	693b      	ldr	r3, [r7, #16]
 80025a2:	2b00      	cmp	r3, #0
 80025a4:	d115      	bne.n	80025d2 <LOS_HwiCreate+0x136>
 80025a6:	4b13      	ldr	r3, [pc, #76]	; (80025f4 <LOS_HwiCreate+0x158>)
 80025a8:	681b      	ldr	r3, [r3, #0]
 80025aa:	691b      	ldr	r3, [r3, #16]
 80025ac:	2b00      	cmp	r3, #0
 80025ae:	d010      	beq.n	80025d2 <LOS_HwiCreate+0x136>
        ret = g_hwiOps->setIrqPriority(hwiNum, hwiPrio);
 80025b0:	4b10      	ldr	r3, [pc, #64]	; (80025f4 <LOS_HwiCreate+0x158>)
 80025b2:	681b      	ldr	r3, [r3, #0]
 80025b4:	691b      	ldr	r3, [r3, #16]
 80025b6:	897a      	ldrh	r2, [r7, #10]
 80025b8:	b2d2      	uxtb	r2, r2
 80025ba:	4611      	mov	r1, r2
 80025bc:	68f8      	ldr	r0, [r7, #12]
 80025be:	4798      	blx	r3
 80025c0:	6138      	str	r0, [r7, #16]
        if (ret != LOS_OK) {
 80025c2:	693b      	ldr	r3, [r7, #16]
 80025c4:	2b00      	cmp	r3, #0
 80025c6:	d004      	beq.n	80025d2 <LOS_HwiCreate+0x136>
            (VOID)OsHwiDel(hwiForm, irqParam, hwiNum);
 80025c8:	68fa      	ldr	r2, [r7, #12]
 80025ca:	6839      	ldr	r1, [r7, #0]
 80025cc:	6978      	ldr	r0, [r7, #20]
 80025ce:	f7ff fe07 	bl	80021e0 <OsHwiDel>
        }
    }
    return ret;
 80025d2:	693b      	ldr	r3, [r7, #16]
}
 80025d4:	4a05      	ldr	r2, [pc, #20]	; (80025ec <LOS_HwiCreate+0x150>)
 80025d6:	6811      	ldr	r1, [r2, #0]
 80025d8:	6b7a      	ldr	r2, [r7, #52]	; 0x34
 80025da:	4051      	eors	r1, r2
 80025dc:	d001      	beq.n	80025e2 <LOS_HwiCreate+0x146>
 80025de:	f001 ff03 	bl	80043e8 <__stack_chk_fail>
 80025e2:	4618      	mov	r0, r3
 80025e4:	373c      	adds	r7, #60	; 0x3c
 80025e6:	46bd      	mov	sp, r7
 80025e8:	bd90      	pop	{r4, r7, pc}
 80025ea:	bf00      	nop
 80025ec:	08020018 	.word	0x08020018
 80025f0:	02000901 	.word	0x02000901
 80025f4:	20000758 	.word	0x20000758
 80025f8:	02000900 	.word	0x02000900
 80025fc:	2000075c 	.word	0x2000075c

08002600 <LOS_HwiEnable>:

    return g_hwiOps->triggerIrq(hwiNum);
}

LITE_OS_SEC_TEXT UINT32 LOS_HwiEnable(HWI_HANDLE_T hwiNum)
{
 8002600:	b590      	push	{r4, r7, lr}
 8002602:	b087      	sub	sp, #28
 8002604:	af00      	add	r7, sp, #0
 8002606:	6078      	str	r0, [r7, #4]
 8002608:	4b1f      	ldr	r3, [pc, #124]	; (8002688 <LOS_HwiEnable+0x88>)
 800260a:	681b      	ldr	r3, [r3, #0]
 800260c:	617b      	str	r3, [r7, #20]
 800260e:	f04f 0300 	mov.w	r3, #0
    if ((g_hwiOps == NULL) || (g_hwiOps->enableIrq == NULL)) {
 8002612:	4b1e      	ldr	r3, [pc, #120]	; (800268c <LOS_HwiEnable+0x8c>)
 8002614:	681b      	ldr	r3, [r3, #0]
 8002616:	2b00      	cmp	r3, #0
 8002618:	d004      	beq.n	8002624 <LOS_HwiEnable+0x24>
 800261a:	4b1c      	ldr	r3, [pc, #112]	; (800268c <LOS_HwiEnable+0x8c>)
 800261c:	681b      	ldr	r3, [r3, #0]
 800261e:	689b      	ldr	r3, [r3, #8]
 8002620:	2b00      	cmp	r3, #0
 8002622:	d101      	bne.n	8002628 <LOS_HwiEnable+0x28>
        return LOS_ERRNO_HWI_PROC_FUNC_NULL;
 8002624:	4b1a      	ldr	r3, [pc, #104]	; (8002690 <LOS_HwiEnable+0x90>)
 8002626:	e024      	b.n	8002672 <LOS_HwiEnable+0x72>
    }
    LOS_TRACE(HWI_ENABLE, hwiNum);
 8002628:	2300      	movs	r3, #0
 800262a:	60fb      	str	r3, [r7, #12]
 800262c:	687b      	ldr	r3, [r7, #4]
 800262e:	613b      	str	r3, [r7, #16]
 8002630:	2302      	movs	r3, #2
 8002632:	60bb      	str	r3, [r7, #8]
 8002634:	68bb      	ldr	r3, [r7, #8]
 8002636:	2b01      	cmp	r3, #1
 8002638:	d915      	bls.n	8002666 <LOS_HwiEnable+0x66>
 800263a:	4b16      	ldr	r3, [pc, #88]	; (8002694 <LOS_HwiEnable+0x94>)
 800263c:	681b      	ldr	r3, [r3, #0]
 800263e:	2b00      	cmp	r3, #0
 8002640:	d011      	beq.n	8002666 <LOS_HwiEnable+0x66>
 8002642:	4b14      	ldr	r3, [pc, #80]	; (8002694 <LOS_HwiEnable+0x94>)
 8002644:	681c      	ldr	r4, [r3, #0]
 8002646:	6939      	ldr	r1, [r7, #16]
 8002648:	68bb      	ldr	r3, [r7, #8]
 800264a:	2b02      	cmp	r3, #2
 800264c:	d904      	bls.n	8002658 <LOS_HwiEnable+0x58>
 800264e:	f107 030c 	add.w	r3, r7, #12
 8002652:	f103 0208 	add.w	r2, r3, #8
 8002656:	e000      	b.n	800265a <LOS_HwiEnable+0x5a>
 8002658:	2200      	movs	r2, #0
 800265a:	68bb      	ldr	r3, [r7, #8]
 800265c:	b29b      	uxth	r3, r3
 800265e:	3b02      	subs	r3, #2
 8002660:	b29b      	uxth	r3, r3
 8002662:	2026      	movs	r0, #38	; 0x26
 8002664:	47a0      	blx	r4

    return g_hwiOps->enableIrq(hwiNum);
 8002666:	4b09      	ldr	r3, [pc, #36]	; (800268c <LOS_HwiEnable+0x8c>)
 8002668:	681b      	ldr	r3, [r3, #0]
 800266a:	689b      	ldr	r3, [r3, #8]
 800266c:	6878      	ldr	r0, [r7, #4]
 800266e:	4798      	blx	r3
 8002670:	4603      	mov	r3, r0
}
 8002672:	4a05      	ldr	r2, [pc, #20]	; (8002688 <LOS_HwiEnable+0x88>)
 8002674:	6811      	ldr	r1, [r2, #0]
 8002676:	697a      	ldr	r2, [r7, #20]
 8002678:	4051      	eors	r1, r2
 800267a:	d001      	beq.n	8002680 <LOS_HwiEnable+0x80>
 800267c:	f001 feb4 	bl	80043e8 <__stack_chk_fail>
 8002680:	4618      	mov	r0, r3
 8002682:	371c      	adds	r7, #28
 8002684:	46bd      	mov	sp, r7
 8002686:	bd90      	pop	{r4, r7, pc}
 8002688:	08020024 	.word	0x08020024
 800268c:	20000758 	.word	0x20000758
 8002690:	02000901 	.word	0x02000901
 8002694:	2000075c 	.word	0x2000075c

08002698 <LOS_IntWakeupHookReg>:
}
#endif

#ifdef LOSCFG_KERNEL_LOWPOWER
LITE_OS_SEC_TEXT_MINOR VOID LOS_IntWakeupHookReg(WAKEUPFROMINTHOOK hook)
{
 8002698:	b480      	push	{r7}
 800269a:	b083      	sub	sp, #12
 800269c:	af00      	add	r7, sp, #0
 800269e:	6078      	str	r0, [r7, #4]
    g_intWakeupHook = hook;
 80026a0:	4a04      	ldr	r2, [pc, #16]	; (80026b4 <LOS_IntWakeupHookReg+0x1c>)
 80026a2:	687b      	ldr	r3, [r7, #4]
 80026a4:	6013      	str	r3, [r2, #0]
}
 80026a6:	bf00      	nop
 80026a8:	370c      	adds	r7, #12
 80026aa:	46bd      	mov	sp, r7
 80026ac:	f85d 7b04 	ldr.w	r7, [sp], #4
 80026b0:	4770      	bx	lr
 80026b2:	bf00      	nop
 80026b4:	20000754 	.word	0x20000754

080026b8 <OsHwiInit>:
#endif

/* Initialization of the hardware interrupt */
LITE_OS_SEC_TEXT_INIT VOID OsHwiInit(VOID)
{
 80026b8:	b580      	push	{r7, lr}
 80026ba:	af00      	add	r7, sp, #0
    ArchIrqInit();
 80026bc:	f00d f9ac 	bl	800fa18 <ArchIrqInit>
    return;
 80026c0:	bf00      	nop
}
 80026c2:	bd80      	pop	{r7, pc}

080026c4 <LOS_Align>:
LMS_INIT_HOOK g_lmsMemInitHook = NULL;
LMS_FUNC_HOOK g_lmsMallocHook = NULL;
LMS_FUNC_HOOK g_lmsFreeHook = NULL;
#endif
LITE_OS_SEC_TEXT UINTPTR LOS_Align(UINTPTR addr, UINT32 boundary)
{
 80026c4:	b480      	push	{r7}
 80026c6:	b083      	sub	sp, #12
 80026c8:	af00      	add	r7, sp, #0
 80026ca:	6078      	str	r0, [r7, #4]
 80026cc:	6039      	str	r1, [r7, #0]
    return (addr + boundary - 1) & ~((UINTPTR)(boundary - 1));
 80026ce:	687a      	ldr	r2, [r7, #4]
 80026d0:	683b      	ldr	r3, [r7, #0]
 80026d2:	4413      	add	r3, r2
 80026d4:	1e5a      	subs	r2, r3, #1
 80026d6:	683b      	ldr	r3, [r7, #0]
 80026d8:	425b      	negs	r3, r3
 80026da:	4013      	ands	r3, r2
}
 80026dc:	4618      	mov	r0, r3
 80026de:	370c      	adds	r7, #12
 80026e0:	46bd      	mov	sp, r7
 80026e2:	f85d 7b04 	ldr.w	r7, [sp], #4
 80026e6:	4770      	bx	lr

080026e8 <OsArraySort>:
}

#if defined(LOSCFG_DEBUG_SEMAPHORE) || defined(LOSCFG_DEBUG_MUTEX) || defined(LOSCFG_DEBUG_QUEUE)
VOID OsArraySort(UINT32 *sortArray, UINT32 start, UINT32 end,
                 const SortParam *sortParam, OsCompareFunc compareFunc)
{
 80026e8:	b580      	push	{r7, lr}
 80026ea:	b08a      	sub	sp, #40	; 0x28
 80026ec:	af02      	add	r7, sp, #8
 80026ee:	60f8      	str	r0, [r7, #12]
 80026f0:	60b9      	str	r1, [r7, #8]
 80026f2:	607a      	str	r2, [r7, #4]
 80026f4:	603b      	str	r3, [r7, #0]
    UINT32 left = start;
 80026f6:	68bb      	ldr	r3, [r7, #8]
 80026f8:	613b      	str	r3, [r7, #16]
    UINT32 right = end;
 80026fa:	687b      	ldr	r3, [r7, #4]
 80026fc:	617b      	str	r3, [r7, #20]
    UINT32 idx = start;
 80026fe:	68bb      	ldr	r3, [r7, #8]
 8002700:	61bb      	str	r3, [r7, #24]
    UINT32 pivot = sortArray[start];
 8002702:	68bb      	ldr	r3, [r7, #8]
 8002704:	009b      	lsls	r3, r3, #2
 8002706:	68fa      	ldr	r2, [r7, #12]
 8002708:	4413      	add	r3, r2
 800270a:	681b      	ldr	r3, [r3, #0]
 800270c:	61fb      	str	r3, [r7, #28]

    while (left < right) {
 800270e:	e068      	b.n	80027e2 <OsArraySort+0xfa>
        while ((left < right) && (sortArray[right] < sortParam->ctrlBlockCnt) && (pivot < sortParam->ctrlBlockCnt) &&
               compareFunc(sortParam, sortArray[right], pivot)) {
            right--;
 8002710:	697b      	ldr	r3, [r7, #20]
 8002712:	3b01      	subs	r3, #1
 8002714:	617b      	str	r3, [r7, #20]
        while ((left < right) && (sortArray[right] < sortParam->ctrlBlockCnt) && (pivot < sortParam->ctrlBlockCnt) &&
 8002716:	693a      	ldr	r2, [r7, #16]
 8002718:	697b      	ldr	r3, [r7, #20]
 800271a:	429a      	cmp	r2, r3
 800271c:	d219      	bcs.n	8002752 <OsArraySort+0x6a>
 800271e:	697b      	ldr	r3, [r7, #20]
 8002720:	009b      	lsls	r3, r3, #2
 8002722:	68fa      	ldr	r2, [r7, #12]
 8002724:	4413      	add	r3, r2
 8002726:	681a      	ldr	r2, [r3, #0]
 8002728:	683b      	ldr	r3, [r7, #0]
 800272a:	689b      	ldr	r3, [r3, #8]
 800272c:	429a      	cmp	r2, r3
 800272e:	d210      	bcs.n	8002752 <OsArraySort+0x6a>
 8002730:	683b      	ldr	r3, [r7, #0]
 8002732:	689b      	ldr	r3, [r3, #8]
 8002734:	69fa      	ldr	r2, [r7, #28]
 8002736:	429a      	cmp	r2, r3
 8002738:	d20b      	bcs.n	8002752 <OsArraySort+0x6a>
               compareFunc(sortParam, sortArray[right], pivot)) {
 800273a:	697b      	ldr	r3, [r7, #20]
 800273c:	009b      	lsls	r3, r3, #2
 800273e:	68fa      	ldr	r2, [r7, #12]
 8002740:	4413      	add	r3, r2
 8002742:	6819      	ldr	r1, [r3, #0]
 8002744:	6abb      	ldr	r3, [r7, #40]	; 0x28
 8002746:	69fa      	ldr	r2, [r7, #28]
 8002748:	6838      	ldr	r0, [r7, #0]
 800274a:	4798      	blx	r3
 800274c:	4603      	mov	r3, r0
        while ((left < right) && (sortArray[right] < sortParam->ctrlBlockCnt) && (pivot < sortParam->ctrlBlockCnt) &&
 800274e:	2b00      	cmp	r3, #0
 8002750:	d1de      	bne.n	8002710 <OsArraySort+0x28>
        }

        if (left < right) {
 8002752:	693a      	ldr	r2, [r7, #16]
 8002754:	697b      	ldr	r3, [r7, #20]
 8002756:	429a      	cmp	r2, r3
 8002758:	d212      	bcs.n	8002780 <OsArraySort+0x98>
            sortArray[left] = sortArray[right];
 800275a:	697b      	ldr	r3, [r7, #20]
 800275c:	009b      	lsls	r3, r3, #2
 800275e:	68fa      	ldr	r2, [r7, #12]
 8002760:	441a      	add	r2, r3
 8002762:	693b      	ldr	r3, [r7, #16]
 8002764:	009b      	lsls	r3, r3, #2
 8002766:	68f9      	ldr	r1, [r7, #12]
 8002768:	440b      	add	r3, r1
 800276a:	6812      	ldr	r2, [r2, #0]
 800276c:	601a      	str	r2, [r3, #0]
            idx = right;
 800276e:	697b      	ldr	r3, [r7, #20]
 8002770:	61bb      	str	r3, [r7, #24]
            left++;
 8002772:	693b      	ldr	r3, [r7, #16]
 8002774:	3301      	adds	r3, #1
 8002776:	613b      	str	r3, [r7, #16]
        }

        while ((left < right) && (sortArray[left] < sortParam->ctrlBlockCnt) && (pivot < sortParam->ctrlBlockCnt) &&
 8002778:	e002      	b.n	8002780 <OsArraySort+0x98>
               compareFunc(sortParam, pivot, sortArray[left])) {
            left++;
 800277a:	693b      	ldr	r3, [r7, #16]
 800277c:	3301      	adds	r3, #1
 800277e:	613b      	str	r3, [r7, #16]
        while ((left < right) && (sortArray[left] < sortParam->ctrlBlockCnt) && (pivot < sortParam->ctrlBlockCnt) &&
 8002780:	693a      	ldr	r2, [r7, #16]
 8002782:	697b      	ldr	r3, [r7, #20]
 8002784:	429a      	cmp	r2, r3
 8002786:	d219      	bcs.n	80027bc <OsArraySort+0xd4>
 8002788:	693b      	ldr	r3, [r7, #16]
 800278a:	009b      	lsls	r3, r3, #2
 800278c:	68fa      	ldr	r2, [r7, #12]
 800278e:	4413      	add	r3, r2
 8002790:	681a      	ldr	r2, [r3, #0]
 8002792:	683b      	ldr	r3, [r7, #0]
 8002794:	689b      	ldr	r3, [r3, #8]
 8002796:	429a      	cmp	r2, r3
 8002798:	d210      	bcs.n	80027bc <OsArraySort+0xd4>
 800279a:	683b      	ldr	r3, [r7, #0]
 800279c:	689b      	ldr	r3, [r3, #8]
 800279e:	69fa      	ldr	r2, [r7, #28]
 80027a0:	429a      	cmp	r2, r3
 80027a2:	d20b      	bcs.n	80027bc <OsArraySort+0xd4>
               compareFunc(sortParam, pivot, sortArray[left])) {
 80027a4:	693b      	ldr	r3, [r7, #16]
 80027a6:	009b      	lsls	r3, r3, #2
 80027a8:	68fa      	ldr	r2, [r7, #12]
 80027aa:	4413      	add	r3, r2
 80027ac:	681a      	ldr	r2, [r3, #0]
 80027ae:	6abb      	ldr	r3, [r7, #40]	; 0x28
 80027b0:	69f9      	ldr	r1, [r7, #28]
 80027b2:	6838      	ldr	r0, [r7, #0]
 80027b4:	4798      	blx	r3
 80027b6:	4603      	mov	r3, r0
        while ((left < right) && (sortArray[left] < sortParam->ctrlBlockCnt) && (pivot < sortParam->ctrlBlockCnt) &&
 80027b8:	2b00      	cmp	r3, #0
 80027ba:	d1de      	bne.n	800277a <OsArraySort+0x92>
        }

        if (left < right) {
 80027bc:	693a      	ldr	r2, [r7, #16]
 80027be:	697b      	ldr	r3, [r7, #20]
 80027c0:	429a      	cmp	r2, r3
 80027c2:	d20e      	bcs.n	80027e2 <OsArraySort+0xfa>
            sortArray[right] = sortArray[left];
 80027c4:	693b      	ldr	r3, [r7, #16]
 80027c6:	009b      	lsls	r3, r3, #2
 80027c8:	68fa      	ldr	r2, [r7, #12]
 80027ca:	441a      	add	r2, r3
 80027cc:	697b      	ldr	r3, [r7, #20]
 80027ce:	009b      	lsls	r3, r3, #2
 80027d0:	68f9      	ldr	r1, [r7, #12]
 80027d2:	440b      	add	r3, r1
 80027d4:	6812      	ldr	r2, [r2, #0]
 80027d6:	601a      	str	r2, [r3, #0]
            idx = left;
 80027d8:	693b      	ldr	r3, [r7, #16]
 80027da:	61bb      	str	r3, [r7, #24]
            right--;
 80027dc:	697b      	ldr	r3, [r7, #20]
 80027de:	3b01      	subs	r3, #1
 80027e0:	617b      	str	r3, [r7, #20]
    while (left < right) {
 80027e2:	693a      	ldr	r2, [r7, #16]
 80027e4:	697b      	ldr	r3, [r7, #20]
 80027e6:	429a      	cmp	r2, r3
 80027e8:	d395      	bcc.n	8002716 <OsArraySort+0x2e>
        }
    }

    sortArray[idx] = pivot;
 80027ea:	69bb      	ldr	r3, [r7, #24]
 80027ec:	009b      	lsls	r3, r3, #2
 80027ee:	68fa      	ldr	r2, [r7, #12]
 80027f0:	4413      	add	r3, r2
 80027f2:	69fa      	ldr	r2, [r7, #28]
 80027f4:	601a      	str	r2, [r3, #0]

    if (start < idx) {
 80027f6:	68ba      	ldr	r2, [r7, #8]
 80027f8:	69bb      	ldr	r3, [r7, #24]
 80027fa:	429a      	cmp	r2, r3
 80027fc:	d208      	bcs.n	8002810 <OsArraySort+0x128>
        OsArraySort(sortArray, start, idx - 1, sortParam, compareFunc);
 80027fe:	69bb      	ldr	r3, [r7, #24]
 8002800:	1e5a      	subs	r2, r3, #1
 8002802:	6abb      	ldr	r3, [r7, #40]	; 0x28
 8002804:	9300      	str	r3, [sp, #0]
 8002806:	683b      	ldr	r3, [r7, #0]
 8002808:	68b9      	ldr	r1, [r7, #8]
 800280a:	68f8      	ldr	r0, [r7, #12]
 800280c:	f7ff ff6c 	bl	80026e8 <OsArraySort>
    }
    if (idx < end) {
 8002810:	69ba      	ldr	r2, [r7, #24]
 8002812:	687b      	ldr	r3, [r7, #4]
 8002814:	429a      	cmp	r2, r3
 8002816:	d208      	bcs.n	800282a <OsArraySort+0x142>
        OsArraySort(sortArray, idx + 1, end, sortParam, compareFunc);
 8002818:	69bb      	ldr	r3, [r7, #24]
 800281a:	1c59      	adds	r1, r3, #1
 800281c:	6abb      	ldr	r3, [r7, #40]	; 0x28
 800281e:	9300      	str	r3, [sp, #0]
 8002820:	683b      	ldr	r3, [r7, #0]
 8002822:	687a      	ldr	r2, [r7, #4]
 8002824:	68f8      	ldr	r0, [r7, #12]
 8002826:	f7ff ff5f 	bl	80026e8 <OsArraySort>
    }
}
 800282a:	bf00      	nop
 800282c:	3720      	adds	r7, #32
 800282e:	46bd      	mov	sp, r7
 8002830:	bd80      	pop	{r7, pc}

08002832 <LOS_ListInit>:
 * <ul><li>los_list.h: the header file that contains the API declaration.</li></ul>
 * @see LOS_DL_LIST_HEAD
 * @since Huawei LiteOS V100R001C00
 */
LITE_OS_SEC_ALW_INLINE STATIC INLINE VOID LOS_ListInit(LOS_DL_LIST *list)
{
 8002832:	b480      	push	{r7}
 8002834:	b083      	sub	sp, #12
 8002836:	af00      	add	r7, sp, #0
 8002838:	6078      	str	r0, [r7, #4]
    list->pstNext = list;
 800283a:	687b      	ldr	r3, [r7, #4]
 800283c:	687a      	ldr	r2, [r7, #4]
 800283e:	605a      	str	r2, [r3, #4]
    list->pstPrev = list;
 8002840:	687b      	ldr	r3, [r7, #4]
 8002842:	687a      	ldr	r2, [r7, #4]
 8002844:	601a      	str	r2, [r3, #0]
}
 8002846:	bf00      	nop
 8002848:	370c      	adds	r7, #12
 800284a:	46bd      	mov	sp, r7
 800284c:	f85d 7b04 	ldr.w	r7, [sp], #4
 8002850:	4770      	bx	lr

08002852 <LOS_ListAdd>:
 * <ul><li>los_list.h: the header file that contains the API declaration.</li></ul>
 * @see LOS_ListDelete | LOS_ListTailInsert | LOS_ListHeadInsert
 * @since Huawei LiteOS V100R001C00
 */
LITE_OS_SEC_ALW_INLINE STATIC INLINE VOID LOS_ListAdd(LOS_DL_LIST *list, LOS_DL_LIST *node)
{
 8002852:	b480      	push	{r7}
 8002854:	b083      	sub	sp, #12
 8002856:	af00      	add	r7, sp, #0
 8002858:	6078      	str	r0, [r7, #4]
 800285a:	6039      	str	r1, [r7, #0]
    node->pstNext = list->pstNext;
 800285c:	687b      	ldr	r3, [r7, #4]
 800285e:	685a      	ldr	r2, [r3, #4]
 8002860:	683b      	ldr	r3, [r7, #0]
 8002862:	605a      	str	r2, [r3, #4]
    node->pstPrev = list;
 8002864:	683b      	ldr	r3, [r7, #0]
 8002866:	687a      	ldr	r2, [r7, #4]
 8002868:	601a      	str	r2, [r3, #0]
    list->pstNext->pstPrev = node;
 800286a:	687b      	ldr	r3, [r7, #4]
 800286c:	685b      	ldr	r3, [r3, #4]
 800286e:	683a      	ldr	r2, [r7, #0]
 8002870:	601a      	str	r2, [r3, #0]
    list->pstNext = node;
 8002872:	687b      	ldr	r3, [r7, #4]
 8002874:	683a      	ldr	r2, [r7, #0]
 8002876:	605a      	str	r2, [r3, #4]
}
 8002878:	bf00      	nop
 800287a:	370c      	adds	r7, #12
 800287c:	46bd      	mov	sp, r7
 800287e:	f85d 7b04 	ldr.w	r7, [sp], #4
 8002882:	4770      	bx	lr

08002884 <LOS_ListTailInsert>:
 * <ul><li>los_list.h: the header file that contains the API declaration.</li></ul>
 * @see LOS_ListAdd | LOS_ListHeadInsert
 * @since Huawei LiteOS V100R001C00
 */
LITE_OS_SEC_ALW_INLINE STATIC INLINE VOID LOS_ListTailInsert(LOS_DL_LIST *list, LOS_DL_LIST *node)
{
 8002884:	b580      	push	{r7, lr}
 8002886:	b082      	sub	sp, #8
 8002888:	af00      	add	r7, sp, #0
 800288a:	6078      	str	r0, [r7, #4]
 800288c:	6039      	str	r1, [r7, #0]
    LOS_ListAdd(list->pstPrev, node);
 800288e:	687b      	ldr	r3, [r7, #4]
 8002890:	681b      	ldr	r3, [r3, #0]
 8002892:	6839      	ldr	r1, [r7, #0]
 8002894:	4618      	mov	r0, r3
 8002896:	f7ff ffdc 	bl	8002852 <LOS_ListAdd>
}
 800289a:	bf00      	nop
 800289c:	3708      	adds	r7, #8
 800289e:	46bd      	mov	sp, r7
 80028a0:	bd80      	pop	{r7, pc}

080028a2 <LOS_ListDelete>:
 * <ul><li>los_list.h: the header file that contains the API declaration.</li></ul>
 * @see LOS_ListAdd
 * @since Huawei LiteOS V100R001C00
 */
LITE_OS_SEC_ALW_INLINE STATIC INLINE VOID LOS_ListDelete(LOS_DL_LIST *node)
{
 80028a2:	b480      	push	{r7}
 80028a4:	b083      	sub	sp, #12
 80028a6:	af00      	add	r7, sp, #0
 80028a8:	6078      	str	r0, [r7, #4]
    node->pstNext->pstPrev = node->pstPrev;
 80028aa:	687b      	ldr	r3, [r7, #4]
 80028ac:	685b      	ldr	r3, [r3, #4]
 80028ae:	687a      	ldr	r2, [r7, #4]
 80028b0:	6812      	ldr	r2, [r2, #0]
 80028b2:	601a      	str	r2, [r3, #0]
    node->pstPrev->pstNext = node->pstNext;
 80028b4:	687b      	ldr	r3, [r7, #4]
 80028b6:	681b      	ldr	r3, [r3, #0]
 80028b8:	687a      	ldr	r2, [r7, #4]
 80028ba:	6852      	ldr	r2, [r2, #4]
 80028bc:	605a      	str	r2, [r3, #4]
    node->pstNext = NULL;
 80028be:	687b      	ldr	r3, [r7, #4]
 80028c0:	2200      	movs	r2, #0
 80028c2:	605a      	str	r2, [r3, #4]
    node->pstPrev = NULL;
 80028c4:	687b      	ldr	r3, [r7, #4]
 80028c6:	2200      	movs	r2, #0
 80028c8:	601a      	str	r2, [r3, #0]
}
 80028ca:	bf00      	nop
 80028cc:	370c      	adds	r7, #12
 80028ce:	46bd      	mov	sp, r7
 80028d0:	f85d 7b04 	ldr.w	r7, [sp], #4
 80028d4:	4770      	bx	lr

080028d6 <LOS_ListEmpty>:
 * @par Dependency:
 * <ul><li>los_list.h: the header file that contains the API declaration.</li></ul>
 * @since Huawei LiteOS V100R001C00
 */
LITE_OS_SEC_ALW_INLINE STATIC INLINE BOOL LOS_ListEmpty(LOS_DL_LIST *list)
{
 80028d6:	b480      	push	{r7}
 80028d8:	b083      	sub	sp, #12
 80028da:	af00      	add	r7, sp, #0
 80028dc:	6078      	str	r0, [r7, #4]
    return (BOOL)(list->pstNext == list);
 80028de:	687b      	ldr	r3, [r7, #4]
 80028e0:	685b      	ldr	r3, [r3, #4]
 80028e2:	687a      	ldr	r2, [r7, #4]
 80028e4:	429a      	cmp	r2, r3
 80028e6:	bf0c      	ite	eq
 80028e8:	2301      	moveq	r3, #1
 80028ea:	2300      	movne	r3, #0
 80028ec:	b2db      	uxtb	r3, r3
}
 80028ee:	4618      	mov	r0, r3
 80028f0:	370c      	adds	r7, #12
 80028f2:	46bd      	mov	sp, r7
 80028f4:	f85d 7b04 	ldr.w	r7, [sp], #4
 80028f8:	4770      	bx	lr

080028fa <ArchCurrCpuid>:
{
 80028fa:	b480      	push	{r7}
 80028fc:	af00      	add	r7, sp, #0
    return 0;
 80028fe:	2300      	movs	r3, #0
}
 8002900:	4618      	mov	r0, r3
 8002902:	46bd      	mov	sp, r7
 8002904:	f85d 7b04 	ldr.w	r7, [sp], #4
 8002908:	4770      	bx	lr

0800290a <LOS_IntLock>:
{
 800290a:	b580      	push	{r7, lr}
 800290c:	af00      	add	r7, sp, #0
    return ArchIntLock();
 800290e:	f7fe f9db 	bl	8000cc8 <ArchIntLock>
 8002912:	4603      	mov	r3, r0
}
 8002914:	4618      	mov	r0, r3
 8002916:	bd80      	pop	{r7, pc}

08002918 <LOS_IntUnLock>:
{
 8002918:	b580      	push	{r7, lr}
 800291a:	af00      	add	r7, sp, #0
    return ArchIntUnlock();
 800291c:	f7fe f9d8 	bl	8000cd0 <ArchIntUnlock>
 8002920:	4603      	mov	r3, r0
}
 8002922:	4618      	mov	r0, r3
 8002924:	bd80      	pop	{r7, pc}

08002926 <LOS_IntRestore>:
{
 8002926:	b580      	push	{r7, lr}
 8002928:	b082      	sub	sp, #8
 800292a:	af00      	add	r7, sp, #0
 800292c:	6078      	str	r0, [r7, #4]
    ArchIntRestore(intSave);
 800292e:	6878      	ldr	r0, [r7, #4]
 8002930:	f7fe f9d2 	bl	8000cd8 <ArchIntRestore>
}
 8002934:	bf00      	nop
 8002936:	3708      	adds	r7, #8
 8002938:	46bd      	mov	sp, r7
 800293a:	bd80      	pop	{r7, pc}

0800293c <ArchCurrTaskGet>:
{
 800293c:	b480      	push	{r7}
 800293e:	af00      	add	r7, sp, #0
    return g_runTask;
 8002940:	4b03      	ldr	r3, [pc, #12]	; (8002950 <ArchCurrTaskGet+0x14>)
 8002942:	681b      	ldr	r3, [r3, #0]
}
 8002944:	4618      	mov	r0, r3
 8002946:	46bd      	mov	sp, r7
 8002948:	f85d 7b04 	ldr.w	r7, [sp], #4
 800294c:	4770      	bx	lr
 800294e:	bf00      	nop
 8002950:	200033bc 	.word	0x200033bc

08002954 <OsPercpuGet>:

/* the kernel per-cpu structure */
extern Percpu g_percpu[LOSCFG_KERNEL_CORE_NUM];

STATIC INLINE Percpu *OsPercpuGet(VOID)
{
 8002954:	b580      	push	{r7, lr}
 8002956:	af00      	add	r7, sp, #0
    return &g_percpu[ArchCurrCpuid()];
 8002958:	f7ff ffcf 	bl	80028fa <ArchCurrCpuid>
 800295c:	4602      	mov	r2, r0
 800295e:	4613      	mov	r3, r2
 8002960:	00db      	lsls	r3, r3, #3
 8002962:	4413      	add	r3, r2
 8002964:	009b      	lsls	r3, r3, #2
 8002966:	4a02      	ldr	r2, [pc, #8]	; (8002970 <OsPercpuGet+0x1c>)
 8002968:	4413      	add	r3, r2
}
 800296a:	4618      	mov	r0, r3
 800296c:	bd80      	pop	{r7, pc}
 800296e:	bf00      	nop
 8002970:	200036fc 	.word	0x200036fc

08002974 <OsPreemptable>:
 * CPU 
 * 
 *  percpu->schedFlag = INT_PEND_RESCH
 */
STATIC INLINE BOOL OsPreemptable(VOID)
{
 8002974:	b580      	push	{r7, lr}
 8002976:	b082      	sub	sp, #8
 8002978:	af00      	add	r7, sp, #0
    /*
     * Unlike OsPreemptableInSched, the int may be not disabled when OsPreemptable
     * is called, needs manually disable interrupt, to prevent current task from
     * being migrated to another core, and get the wrong preemptable status.
     */
    UINT32 intSave = LOS_IntLock();
 800297a:	f7ff ffc6 	bl	800290a <LOS_IntLock>
 800297e:	6038      	str	r0, [r7, #0]
    BOOL preemptable = (OsPercpuGet()->taskLockCnt == 0);
 8002980:	f7ff ffe8 	bl	8002954 <OsPercpuGet>
 8002984:	4603      	mov	r3, r0
 8002986:	695b      	ldr	r3, [r3, #20]
 8002988:	2b00      	cmp	r3, #0
 800298a:	bf0c      	ite	eq
 800298c:	2301      	moveq	r3, #1
 800298e:	2300      	movne	r3, #0
 8002990:	b2db      	uxtb	r3, r3
 8002992:	607b      	str	r3, [r7, #4]
    if (!preemptable) {
 8002994:	687b      	ldr	r3, [r7, #4]
 8002996:	2b00      	cmp	r3, #0
 8002998:	d104      	bne.n	80029a4 <OsPreemptable+0x30>
        /* Set schedule flag if preemption is disabled */
        OsPercpuGet()->schedFlag = INT_PEND_RESCH;
 800299a:	f7ff ffdb 	bl	8002954 <OsPercpuGet>
 800299e:	4603      	mov	r3, r0
 80029a0:	2201      	movs	r2, #1
 80029a2:	621a      	str	r2, [r3, #32]
    }
    LOS_IntRestore(intSave);
 80029a4:	6838      	ldr	r0, [r7, #0]
 80029a6:	f7ff ffbe 	bl	8002926 <LOS_IntRestore>
    return preemptable;
 80029aa:	687b      	ldr	r3, [r7, #4]
}
 80029ac:	4618      	mov	r0, r3
 80029ae:	3708      	adds	r7, #8
 80029b0:	46bd      	mov	sp, r7
 80029b2:	bd80      	pop	{r7, pc}

080029b4 <OsPreemptableInSched>:

STATIC INLINE BOOL OsPreemptableInSched(VOID)
{
 80029b4:	b580      	push	{r7, lr}
 80029b6:	b082      	sub	sp, #8
 80029b8:	af00      	add	r7, sp, #0
    BOOL preemptable = FALSE;
 80029ba:	2300      	movs	r3, #0
 80029bc:	607b      	str	r3, [r7, #4]
     * will increase by 1 in that case.
     */
    preemptable = (OsPercpuGet()->taskLockCnt == 1);

#else
    preemptable = (OsPercpuGet()->taskLockCnt == 0);
 80029be:	f7ff ffc9 	bl	8002954 <OsPercpuGet>
 80029c2:	4603      	mov	r3, r0
 80029c4:	695b      	ldr	r3, [r3, #20]
 80029c6:	2b00      	cmp	r3, #0
 80029c8:	bf0c      	ite	eq
 80029ca:	2301      	moveq	r3, #1
 80029cc:	2300      	movne	r3, #0
 80029ce:	b2db      	uxtb	r3, r3
 80029d0:	607b      	str	r3, [r7, #4]
#endif
    if (!preemptable) {
 80029d2:	687b      	ldr	r3, [r7, #4]
 80029d4:	2b00      	cmp	r3, #0
 80029d6:	d104      	bne.n	80029e2 <OsPreemptableInSched+0x2e>
        /* Set schedule flag if preemption is disabled */
        OsPercpuGet()->schedFlag = INT_PEND_RESCH;
 80029d8:	f7ff ffbc 	bl	8002954 <OsPercpuGet>
 80029dc:	4603      	mov	r3, r0
 80029de:	2201      	movs	r2, #1
 80029e0:	621a      	str	r2, [r3, #32]
    }

    return preemptable;
 80029e2:	687b      	ldr	r3, [r7, #4]
}
 80029e4:	4618      	mov	r0, r3
 80029e6:	3708      	adds	r7, #8
 80029e8:	46bd      	mov	sp, r7
 80029ea:	bd80      	pop	{r7, pc}

080029ec <LOS_Schedule>:
 * systick INT_PEND_RESCH 
 * ISR 
 * INT_PEND_RESCH (OsSchedPreempt)
 */
STATIC INLINE VOID LOS_Schedule(VOID)
{
 80029ec:	b580      	push	{r7, lr}
 80029ee:	af00      	add	r7, sp, #0
    if (OS_INT_ACTIVE) {
 80029f0:	f7ff fd3c 	bl	800246c <IntActive>
 80029f4:	4603      	mov	r3, r0
 80029f6:	2b00      	cmp	r3, #0
 80029f8:	d005      	beq.n	8002a06 <LOS_Schedule+0x1a>
        OsPercpuGet()->schedFlag = INT_PEND_RESCH;
 80029fa:	f7ff ffab 	bl	8002954 <OsPercpuGet>
 80029fe:	4603      	mov	r3, r0
 8002a00:	2201      	movs	r2, #1
 8002a02:	621a      	str	r2, [r3, #32]
        return;
 8002a04:	e001      	b.n	8002a0a <LOS_Schedule+0x1e>
    /*
     * trigger schedule in task will also do the slice check
     * if necessary, it will give up the timeslice more in time.
     * otherwise, there's no other side effects.
     */
    OsSchedPreempt();
 8002a06:	f005 fc5f 	bl	80082c8 <OsSchedPreempt>
}
 8002a0a:	bd80      	pop	{r7, pc}

08002a0c <LOS_SpinLock>:
{
 8002a0c:	b480      	push	{r7}
 8002a0e:	b083      	sub	sp, #12
 8002a10:	af00      	add	r7, sp, #0
 8002a12:	6078      	str	r0, [r7, #4]
}
 8002a14:	bf00      	nop
 8002a16:	370c      	adds	r7, #12
 8002a18:	46bd      	mov	sp, r7
 8002a1a:	f85d 7b04 	ldr.w	r7, [sp], #4
 8002a1e:	4770      	bx	lr

08002a20 <LOS_SpinUnlock>:
{
 8002a20:	b480      	push	{r7}
 8002a22:	b083      	sub	sp, #12
 8002a24:	af00      	add	r7, sp, #0
 8002a26:	6078      	str	r0, [r7, #4]
}
 8002a28:	bf00      	nop
 8002a2a:	370c      	adds	r7, #12
 8002a2c:	46bd      	mov	sp, r7
 8002a2e:	f85d 7b04 	ldr.w	r7, [sp], #4
 8002a32:	4770      	bx	lr

08002a34 <LOS_SpinLockSave>:
{
 8002a34:	b580      	push	{r7, lr}
 8002a36:	b082      	sub	sp, #8
 8002a38:	af00      	add	r7, sp, #0
 8002a3a:	6078      	str	r0, [r7, #4]
 8002a3c:	6039      	str	r1, [r7, #0]
    *intSave = LOS_IntLock();
 8002a3e:	f7ff ff64 	bl	800290a <LOS_IntLock>
 8002a42:	4602      	mov	r2, r0
 8002a44:	683b      	ldr	r3, [r7, #0]
 8002a46:	601a      	str	r2, [r3, #0]
}
 8002a48:	bf00      	nop
 8002a4a:	3708      	adds	r7, #8
 8002a4c:	46bd      	mov	sp, r7
 8002a4e:	bd80      	pop	{r7, pc}

08002a50 <LOS_SpinUnlockRestore>:
{
 8002a50:	b580      	push	{r7, lr}
 8002a52:	b082      	sub	sp, #8
 8002a54:	af00      	add	r7, sp, #0
 8002a56:	6078      	str	r0, [r7, #4]
 8002a58:	6039      	str	r1, [r7, #0]
    LOS_IntRestore(intSave);
 8002a5a:	6838      	ldr	r0, [r7, #0]
 8002a5c:	f7ff ff63 	bl	8002926 <LOS_IntRestore>
}
 8002a60:	bf00      	nop
 8002a62:	3708      	adds	r7, #8
 8002a64:	46bd      	mov	sp, r7
 8002a66:	bd80      	pop	{r7, pc}

08002a68 <LOS_SpinHeld>:

LITE_OS_SEC_ALW_INLINE STATIC INLINE BOOL LOS_SpinHeld(const SPIN_LOCK_S *lock)
{
 8002a68:	b480      	push	{r7}
 8002a6a:	b083      	sub	sp, #12
 8002a6c:	af00      	add	r7, sp, #0
 8002a6e:	6078      	str	r0, [r7, #4]
    (VOID)lock;
    return TRUE;
 8002a70:	2301      	movs	r3, #1
}
 8002a72:	4618      	mov	r0, r3
 8002a74:	370c      	adds	r7, #12
 8002a76:	46bd      	mov	sp, r7
 8002a78:	f85d 7b04 	ldr.w	r7, [sp], #4
 8002a7c:	4770      	bx	lr

08002a7e <OsCurrTaskGet>:
{
 8002a7e:	b580      	push	{r7, lr}
 8002a80:	af00      	add	r7, sp, #0
    return (LosTaskCB *)ArchCurrTaskGet();
 8002a82:	f7ff ff5b 	bl	800293c <ArchCurrTaskGet>
 8002a86:	4603      	mov	r3, r0
}
 8002a88:	4618      	mov	r0, r3
 8002a8a:	bd80      	pop	{r7, pc}

08002a8c <OsMuxDlockCheckInitHook>:
#endif /* __cplusplus */

/* Deadlock detection initialization interface */
extern UINT32 OsMuxDlockCheckInit(VOID);
STATIC INLINE UINT32 OsMuxDlockCheckInitHook(VOID)
{
 8002a8c:	b580      	push	{r7, lr}
 8002a8e:	af00      	add	r7, sp, #0
#ifdef LOSCFG_DEBUG_MUTEX_DEADLOCK
    return OsMuxDlockCheckInit();
 8002a90:	f003 f9de 	bl	8005e50 <OsMuxDlockCheckInit>
 8002a94:	4603      	mov	r3, r0
#else
    return LOS_OK;
#endif
}
 8002a96:	4618      	mov	r0, r3
 8002a98:	bd80      	pop	{r7, pc}

08002a9a <LOS_MpSchedule>:
extern VOID OsMpScheduleHandler(VOID);
extern VOID OsMpHaltHandler(VOID);
extern UINT32 OsMpInit(VOID);
#else
STATIC INLINE VOID LOS_MpSchedule(UINT32 target)
{
 8002a9a:	b480      	push	{r7}
 8002a9c:	b083      	sub	sp, #12
 8002a9e:	af00      	add	r7, sp, #0
 8002aa0:	6078      	str	r0, [r7, #4]
    (VOID)target;
}
 8002aa2:	bf00      	nop
 8002aa4:	370c      	adds	r7, #12
 8002aa6:	46bd      	mov	sp, r7
 8002aa8:	f85d 7b04 	ldr.w	r7, [sp], #4
 8002aac:	4770      	bx	lr
	...

08002ab0 <OsTaskCBRecycleToFree>:
    g_taskDelHook = hook;
}
#endif

LITE_OS_SEC_TEXT_INIT STATIC VOID OsTaskCBRecycleToFree(VOID)
{
 8002ab0:	b580      	push	{r7, lr}
 8002ab2:	b082      	sub	sp, #8
 8002ab4:	af00      	add	r7, sp, #0
    LosTaskCB *taskCB = NULL;
 8002ab6:	2300      	movs	r3, #0
 8002ab8:	603b      	str	r3, [r7, #0]
    VOID *poolTmp = NULL;
 8002aba:	2300      	movs	r3, #0
 8002abc:	607b      	str	r3, [r7, #4]
#ifdef LOSCFG_TASK_STACK_PROTECT
    UINTPTR MMUProtectAddr;
#endif
    while (!LOS_ListEmpty(&g_taskRecycleList)) {
 8002abe:	e01a      	b.n	8002af6 <OsTaskCBRecycleToFree+0x46>
        poolTmp = (VOID *)m_aucSysMem1;
 8002ac0:	4b12      	ldr	r3, [pc, #72]	; (8002b0c <OsTaskCBRecycleToFree+0x5c>)
 8002ac2:	681b      	ldr	r3, [r3, #0]
 8002ac4:	607b      	str	r3, [r7, #4]
        taskCB = OS_TCB_FROM_PENDLIST(LOS_DL_LIST_FIRST(&g_taskRecycleList));
 8002ac6:	4b12      	ldr	r3, [pc, #72]	; (8002b10 <OsTaskCBRecycleToFree+0x60>)
 8002ac8:	685b      	ldr	r3, [r3, #4]
 8002aca:	3b40      	subs	r3, #64	; 0x40
 8002acc:	603b      	str	r3, [r7, #0]
        LOS_ListDelete(LOS_DL_LIST_FIRST(&g_taskRecycleList));
 8002ace:	4b10      	ldr	r3, [pc, #64]	; (8002b10 <OsTaskCBRecycleToFree+0x60>)
 8002ad0:	685b      	ldr	r3, [r3, #4]
 8002ad2:	4618      	mov	r0, r3
 8002ad4:	f7ff fee5 	bl	80028a2 <LOS_ListDelete>
        LOS_ListAdd(&g_losFreeTask, &taskCB->pendList);
 8002ad8:	683b      	ldr	r3, [r7, #0]
 8002ada:	3340      	adds	r3, #64	; 0x40
 8002adc:	4619      	mov	r1, r3
 8002ade:	480d      	ldr	r0, [pc, #52]	; (8002b14 <OsTaskCBRecycleToFree+0x64>)
 8002ae0:	f7ff feb7 	bl	8002852 <LOS_ListAdd>
#ifdef LOSCFG_EXC_INTERACTION
        if (taskCB->topOfStack < (UINTPTR)m_aucSysMem1) {
            poolTmp = (VOID *)m_aucSysMem0;
        }
#endif
        (VOID)LOS_MemFree(poolTmp, (VOID *)taskCB->topOfStack);
 8002ae4:	683b      	ldr	r3, [r7, #0]
 8002ae6:	691b      	ldr	r3, [r3, #16]
 8002ae8:	4619      	mov	r1, r3
 8002aea:	6878      	ldr	r0, [r7, #4]
 8002aec:	f006 f814 	bl	8008b18 <LOS_MemFree>
#endif
        taskCB->topOfStack = 0;
 8002af0:	683b      	ldr	r3, [r7, #0]
 8002af2:	2200      	movs	r2, #0
 8002af4:	611a      	str	r2, [r3, #16]
    while (!LOS_ListEmpty(&g_taskRecycleList)) {
 8002af6:	4806      	ldr	r0, [pc, #24]	; (8002b10 <OsTaskCBRecycleToFree+0x60>)
 8002af8:	f7ff feed 	bl	80028d6 <LOS_ListEmpty>
 8002afc:	4603      	mov	r3, r0
 8002afe:	2b00      	cmp	r3, #0
 8002b00:	d0de      	beq.n	8002ac0 <OsTaskCBRecycleToFree+0x10>
    }
}
 8002b02:	bf00      	nop
 8002b04:	bf00      	nop
 8002b06:	3708      	adds	r7, #8
 8002b08:	46bd      	mov	sp, r7
 8002b0a:	bd80      	pop	{r7, pc}
 8002b0c:	200021b8 	.word	0x200021b8
 8002b10:	200036c8 	.word	0x200036c8
 8002b14:	200036d0 	.word	0x200036d0

08002b18 <LOS_TaskResRecycle>:

VOID LOS_TaskResRecycle(VOID)
{
 8002b18:	b580      	push	{r7, lr}
 8002b1a:	b082      	sub	sp, #8
 8002b1c:	af00      	add	r7, sp, #0
 8002b1e:	4b0e      	ldr	r3, [pc, #56]	; (8002b58 <LOS_TaskResRecycle+0x40>)
 8002b20:	681b      	ldr	r3, [r3, #0]
 8002b22:	607b      	str	r3, [r7, #4]
 8002b24:	f04f 0300 	mov.w	r3, #0
    UINT32 intSave;

    SCHEDULER_LOCK(intSave);
 8002b28:	463b      	mov	r3, r7
 8002b2a:	4619      	mov	r1, r3
 8002b2c:	480b      	ldr	r0, [pc, #44]	; (8002b5c <LOS_TaskResRecycle+0x44>)
 8002b2e:	f7ff ff81 	bl	8002a34 <LOS_SpinLockSave>
    OsTaskCBRecycleToFree();
 8002b32:	f7ff ffbd 	bl	8002ab0 <OsTaskCBRecycleToFree>
    SCHEDULER_UNLOCK(intSave);
 8002b36:	683b      	ldr	r3, [r7, #0]
 8002b38:	4619      	mov	r1, r3
 8002b3a:	4808      	ldr	r0, [pc, #32]	; (8002b5c <LOS_TaskResRecycle+0x44>)
 8002b3c:	f7ff ff88 	bl	8002a50 <LOS_SpinUnlockRestore>
}
 8002b40:	bf00      	nop
 8002b42:	4b05      	ldr	r3, [pc, #20]	; (8002b58 <LOS_TaskResRecycle+0x40>)
 8002b44:	681a      	ldr	r2, [r3, #0]
 8002b46:	687b      	ldr	r3, [r7, #4]
 8002b48:	405a      	eors	r2, r3
 8002b4a:	d001      	beq.n	8002b50 <LOS_TaskResRecycle+0x38>
 8002b4c:	f001 fc4c 	bl	80043e8 <__stack_chk_fail>
 8002b50:	3708      	adds	r7, #8
 8002b52:	46bd      	mov	sp, r7
 8002b54:	bd80      	pop	{r7, pc}
 8002b56:	bf00      	nop
 8002b58:	08020034 	.word	0x08020034
 8002b5c:	20000764 	.word	0x20000764

08002b60 <OsIdleTask>:
    return FALSE;
}
#endif

LITE_OS_SEC_TEXT WEAK VOID OsIdleTask(VOID)
{
 8002b60:	b580      	push	{r7, lr}
 8002b62:	af00      	add	r7, sp, #0
    while (1) {
        LOS_TaskResRecycle();
 8002b64:	f7ff ffd8 	bl	8002b18 <LOS_TaskResRecycle>

        if (g_idleHandlerHook != NULL) {
 8002b68:	4b07      	ldr	r3, [pc, #28]	; (8002b88 <OsIdleTask+0x28>)
 8002b6a:	681b      	ldr	r3, [r3, #0]
 8002b6c:	2b00      	cmp	r3, #0
 8002b6e:	d002      	beq.n	8002b76 <OsIdleTask+0x16>
            g_idleHandlerHook();
 8002b70:	4b05      	ldr	r3, [pc, #20]	; (8002b88 <OsIdleTask+0x28>)
 8002b72:	681b      	ldr	r3, [r3, #0]
 8002b74:	4798      	blx	r3
        }

#ifdef LOSCFG_KERNEL_LOWPOWER
        if (g_lowPowerHook != NULL) {
 8002b76:	4b05      	ldr	r3, [pc, #20]	; (8002b8c <OsIdleTask+0x2c>)
 8002b78:	681b      	ldr	r3, [r3, #0]
 8002b7a:	2b00      	cmp	r3, #0
 8002b7c:	d0f2      	beq.n	8002b64 <OsIdleTask+0x4>
            g_lowPowerHook();
 8002b7e:	4b03      	ldr	r3, [pc, #12]	; (8002b8c <OsIdleTask+0x2c>)
 8002b80:	681b      	ldr	r3, [r3, #0]
 8002b82:	4798      	blx	r3
        LOS_TaskResRecycle();
 8002b84:	e7ee      	b.n	8002b64 <OsIdleTask+0x4>
 8002b86:	bf00      	nop
 8002b88:	20000770 	.word	0x20000770
 8002b8c:	2000076c 	.word	0x2000076c

08002b90 <OsTaskPriModify>:
 * Description : Change task priority.
 * Input       : taskCB    --- task control block
 *               priority  --- priority
 */
LITE_OS_SEC_TEXT_MINOR VOID OsTaskPriModify(LosTaskCB *taskCB, UINT16 priority)
{
 8002b90:	b590      	push	{r4, r7, lr}
 8002b92:	b08b      	sub	sp, #44	; 0x2c
 8002b94:	af00      	add	r7, sp, #0
 8002b96:	6078      	str	r0, [r7, #4]
 8002b98:	460b      	mov	r3, r1
 8002b9a:	807b      	strh	r3, [r7, #2]
 8002b9c:	4b32      	ldr	r3, [pc, #200]	; (8002c68 <OsTaskPriModify+0xd8>)
 8002b9e:	681b      	ldr	r3, [r3, #0]
 8002ba0:	627b      	str	r3, [r7, #36]	; 0x24
 8002ba2:	f04f 0300 	mov.w	r3, #0
    LOS_ASSERT(LOS_SpinHeld(&g_taskSpin));
 8002ba6:	4831      	ldr	r0, [pc, #196]	; (8002c6c <OsTaskPriModify+0xdc>)
 8002ba8:	f7ff ff5e 	bl	8002a68 <LOS_SpinHeld>
 8002bac:	4603      	mov	r3, r0
 8002bae:	2b00      	cmp	r3, #0
 8002bb0:	d10b      	bne.n	8002bca <OsTaskPriModify+0x3a>
 8002bb2:	f7ff feaa 	bl	800290a <LOS_IntLock>
 8002bb6:	482e      	ldr	r0, [pc, #184]	; (8002c70 <OsTaskPriModify+0xe0>)
 8002bb8:	f001 fd88 	bl	80046cc <dprintf>
 8002bbc:	4b2d      	ldr	r3, [pc, #180]	; (8002c74 <OsTaskPriModify+0xe4>)
 8002bbe:	22b1      	movs	r2, #177	; 0xb1
 8002bc0:	492d      	ldr	r1, [pc, #180]	; (8002c78 <OsTaskPriModify+0xe8>)
 8002bc2:	482e      	ldr	r0, [pc, #184]	; (8002c7c <OsTaskPriModify+0xec>)
 8002bc4:	f001 fd82 	bl	80046cc <dprintf>
 8002bc8:	e7fe      	b.n	8002bc8 <OsTaskPriModify+0x38>

    LOS_TRACE(TASK_PRIOSET, taskCB->taskId, taskCB->taskStatus, taskCB->priority, priority);
 8002bca:	2300      	movs	r3, #0
 8002bcc:	613b      	str	r3, [r7, #16]
 8002bce:	687b      	ldr	r3, [r7, #4]
 8002bd0:	695b      	ldr	r3, [r3, #20]
 8002bd2:	617b      	str	r3, [r7, #20]
 8002bd4:	687b      	ldr	r3, [r7, #4]
 8002bd6:	889b      	ldrh	r3, [r3, #4]
 8002bd8:	61bb      	str	r3, [r7, #24]
 8002bda:	687b      	ldr	r3, [r7, #4]
 8002bdc:	88db      	ldrh	r3, [r3, #6]
 8002bde:	61fb      	str	r3, [r7, #28]
 8002be0:	887b      	ldrh	r3, [r7, #2]
 8002be2:	623b      	str	r3, [r7, #32]
 8002be4:	2305      	movs	r3, #5
 8002be6:	60fb      	str	r3, [r7, #12]
 8002be8:	68fb      	ldr	r3, [r7, #12]
 8002bea:	2b01      	cmp	r3, #1
 8002bec:	d915      	bls.n	8002c1a <OsTaskPriModify+0x8a>
 8002bee:	4b24      	ldr	r3, [pc, #144]	; (8002c80 <OsTaskPriModify+0xf0>)
 8002bf0:	681b      	ldr	r3, [r3, #0]
 8002bf2:	2b00      	cmp	r3, #0
 8002bf4:	d011      	beq.n	8002c1a <OsTaskPriModify+0x8a>
 8002bf6:	4b22      	ldr	r3, [pc, #136]	; (8002c80 <OsTaskPriModify+0xf0>)
 8002bf8:	681c      	ldr	r4, [r3, #0]
 8002bfa:	6979      	ldr	r1, [r7, #20]
 8002bfc:	68fb      	ldr	r3, [r7, #12]
 8002bfe:	2b02      	cmp	r3, #2
 8002c00:	d904      	bls.n	8002c0c <OsTaskPriModify+0x7c>
 8002c02:	f107 0310 	add.w	r3, r7, #16
 8002c06:	f103 0208 	add.w	r2, r3, #8
 8002c0a:	e000      	b.n	8002c0e <OsTaskPriModify+0x7e>
 8002c0c:	2200      	movs	r2, #0
 8002c0e:	68fb      	ldr	r3, [r7, #12]
 8002c10:	b29b      	uxth	r3, r3
 8002c12:	3b02      	subs	r3, #2
 8002c14:	b29b      	uxth	r3, r3
 8002c16:	2041      	movs	r0, #65	; 0x41
 8002c18:	47a0      	blx	r4

    if (taskCB->taskStatus & OS_TASK_STATUS_READY) {
 8002c1a:	687b      	ldr	r3, [r7, #4]
 8002c1c:	889b      	ldrh	r3, [r3, #4]
 8002c1e:	f003 0304 	and.w	r3, r3, #4
 8002c22:	2b00      	cmp	r3, #0
 8002c24:	d011      	beq.n	8002c4a <OsTaskPriModify+0xba>
        OsPriQueueDequeue(&taskCB->pendList);
 8002c26:	687b      	ldr	r3, [r7, #4]
 8002c28:	3340      	adds	r3, #64	; 0x40
 8002c2a:	4618      	mov	r0, r3
 8002c2c:	f005 fcfa 	bl	8008624 <OsPriQueueDequeue>
        taskCB->priority = priority;
 8002c30:	687b      	ldr	r3, [r7, #4]
 8002c32:	887a      	ldrh	r2, [r7, #2]
 8002c34:	80da      	strh	r2, [r3, #6]
        OsPriQueueEnqueue(&taskCB->pendList, taskCB->priority);
 8002c36:	687b      	ldr	r3, [r7, #4]
 8002c38:	f103 0240 	add.w	r2, r3, #64	; 0x40
 8002c3c:	687b      	ldr	r3, [r7, #4]
 8002c3e:	88db      	ldrh	r3, [r3, #6]
 8002c40:	4619      	mov	r1, r3
 8002c42:	4610      	mov	r0, r2
 8002c44:	f005 fcac 	bl	80085a0 <OsPriQueueEnqueue>
    } else {
        taskCB->priority = priority;
    }
}
 8002c48:	e002      	b.n	8002c50 <OsTaskPriModify+0xc0>
        taskCB->priority = priority;
 8002c4a:	687b      	ldr	r3, [r7, #4]
 8002c4c:	887a      	ldrh	r2, [r7, #2]
 8002c4e:	80da      	strh	r2, [r3, #6]
}
 8002c50:	bf00      	nop
 8002c52:	4b05      	ldr	r3, [pc, #20]	; (8002c68 <OsTaskPriModify+0xd8>)
 8002c54:	681a      	ldr	r2, [r3, #0]
 8002c56:	6a7b      	ldr	r3, [r7, #36]	; 0x24
 8002c58:	405a      	eors	r2, r3
 8002c5a:	d001      	beq.n	8002c60 <OsTaskPriModify+0xd0>
 8002c5c:	f001 fbc4 	bl	80043e8 <__stack_chk_fail>
 8002c60:	372c      	adds	r7, #44	; 0x2c
 8002c62:	46bd      	mov	sp, r7
 8002c64:	bd90      	pop	{r4, r7, pc}
 8002c66:	bf00      	nop
 8002c68:	08020068 	.word	0x08020068
 8002c6c:	20000764 	.word	0x20000764
 8002c70:	08020038 	.word	0x08020038
 8002c74:	080232ec 	.word	0x080232ec
 8002c78:	08020040 	.word	0x08020040
 8002c7c:	0802004c 	.word	0x0802004c
 8002c80:	2000075c 	.word	0x2000075c

08002c84 <OsTaskAdd2TimerList>:
 * Description : Add task to sorted delay list.
 * Input       : taskCB  --- task control block
 *               timeout --- wait time, ticks
 */
LITE_OS_SEC_TEXT VOID OsTaskAdd2TimerList(LosTaskCB *taskCB, UINT32 timeout)
{
 8002c84:	b580      	push	{r7, lr}
 8002c86:	b082      	sub	sp, #8
 8002c88:	af00      	add	r7, sp, #0
 8002c8a:	6078      	str	r0, [r7, #4]
 8002c8c:	6039      	str	r1, [r7, #0]
    SET_SORTLIST_VALUE(&(taskCB->sortList), timeout);
 8002c8e:	687b      	ldr	r3, [r7, #4]
 8002c90:	683a      	ldr	r2, [r7, #0]
 8002c92:	651a      	str	r2, [r3, #80]	; 0x50
    OsAdd2SortLink(&OsPercpuGet()->taskSortLink, &taskCB->sortList);
 8002c94:	f7ff fe5e 	bl	8002954 <OsPercpuGet>
 8002c98:	4603      	mov	r3, r0
 8002c9a:	461a      	mov	r2, r3
 8002c9c:	687b      	ldr	r3, [r7, #4]
 8002c9e:	3348      	adds	r3, #72	; 0x48
 8002ca0:	4619      	mov	r1, r3
 8002ca2:	4610      	mov	r0, r2
 8002ca4:	f006 fd32 	bl	800970c <OsAdd2SortLink>
#ifdef LOSCFG_KERNEL_SMP
    taskCB->timerCpu = ArchCurrCpuid();
#endif
}
 8002ca8:	bf00      	nop
 8002caa:	3708      	adds	r7, #8
 8002cac:	46bd      	mov	sp, r7
 8002cae:	bd80      	pop	{r7, pc}

08002cb0 <OsTimerListDelete>:

LITE_OS_SEC_TEXT VOID OsTimerListDelete(LosTaskCB *taskCB)
{
 8002cb0:	b580      	push	{r7, lr}
 8002cb2:	b084      	sub	sp, #16
 8002cb4:	af00      	add	r7, sp, #0
 8002cb6:	6078      	str	r0, [r7, #4]
    SortLinkAttribute *sortLinkHeader = NULL;
 8002cb8:	2300      	movs	r3, #0
 8002cba:	60fb      	str	r3, [r7, #12]
     * the task delay timer is on the specific processor,
     * we need delete the timer from that processor's sortlink.
     */
    sortLinkHeader = &g_percpu[taskCB->timerCpu].taskSortLink;
#else
    sortLinkHeader = &g_percpu[0].taskSortLink;
 8002cbc:	4b05      	ldr	r3, [pc, #20]	; (8002cd4 <OsTimerListDelete+0x24>)
 8002cbe:	60fb      	str	r3, [r7, #12]
#endif
    OsDeleteSortLink(sortLinkHeader, &taskCB->sortList);
 8002cc0:	687b      	ldr	r3, [r7, #4]
 8002cc2:	3348      	adds	r3, #72	; 0x48
 8002cc4:	4619      	mov	r1, r3
 8002cc6:	68f8      	ldr	r0, [r7, #12]
 8002cc8:	f006 fdca 	bl	8009860 <OsDeleteSortLink>
}
 8002ccc:	bf00      	nop
 8002cce:	3710      	adds	r7, #16
 8002cd0:	46bd      	mov	sp, r7
 8002cd2:	bd80      	pop	{r7, pc}
 8002cd4:	200036fc 	.word	0x200036fc

08002cd8 <OsTaskScan>:

LITE_OS_SEC_TEXT VOID OsTaskScan(VOID)
{
 8002cd8:	b580      	push	{r7, lr}
 8002cda:	b086      	sub	sp, #24
 8002cdc:	af00      	add	r7, sp, #0
    SortLinkList *sortList = NULL;
 8002cde:	2300      	movs	r3, #0
 8002ce0:	607b      	str	r3, [r7, #4]
    LosTaskCB *taskCB = NULL;
 8002ce2:	2300      	movs	r3, #0
 8002ce4:	60fb      	str	r3, [r7, #12]
    BOOL needSchedule = FALSE;
 8002ce6:	2300      	movs	r3, #0
 8002ce8:	60bb      	str	r3, [r7, #8]
    UINT16 tempStatus;
    LOS_DL_LIST *listObject = NULL;
 8002cea:	2300      	movs	r3, #0
 8002cec:	613b      	str	r3, [r7, #16]
    SortLinkAttribute *taskSortLink = NULL;
 8002cee:	2300      	movs	r3, #0
 8002cf0:	617b      	str	r3, [r7, #20]

    taskSortLink = &OsPercpuGet()->taskSortLink;
 8002cf2:	f7ff fe2f 	bl	8002954 <OsPercpuGet>
 8002cf6:	4603      	mov	r3, r0
 8002cf8:	617b      	str	r3, [r7, #20]
    SORTLINK_CURSOR_UPDATE(taskSortLink->cursor);
 8002cfa:	697b      	ldr	r3, [r7, #20]
 8002cfc:	889b      	ldrh	r3, [r3, #4]
 8002cfe:	3301      	adds	r3, #1
 8002d00:	b29b      	uxth	r3, r3
 8002d02:	f003 0307 	and.w	r3, r3, #7
 8002d06:	b29a      	uxth	r2, r3
 8002d08:	697b      	ldr	r3, [r7, #20]
 8002d0a:	809a      	strh	r2, [r3, #4]
    SORTLINK_LISTOBJ_GET(listObject, taskSortLink);
 8002d0c:	697b      	ldr	r3, [r7, #20]
 8002d0e:	681a      	ldr	r2, [r3, #0]
 8002d10:	697b      	ldr	r3, [r7, #20]
 8002d12:	889b      	ldrh	r3, [r3, #4]
 8002d14:	00db      	lsls	r3, r3, #3
 8002d16:	4413      	add	r3, r2
 8002d18:	613b      	str	r3, [r7, #16]
     * up by either timeout or corresponding ipc it's waiting.
     *
     * Now synchronize sortlink procedure is used, therefore the whole task scan needs
     * to be protected, preventing another core from doing sortlink deletion at same time.
     */
    LOS_SpinLock(&g_taskSpin);
 8002d1a:	4841      	ldr	r0, [pc, #260]	; (8002e20 <OsTaskScan+0x148>)
 8002d1c:	f7ff fe76 	bl	8002a0c <LOS_SpinLock>

    if (LOS_ListEmpty(listObject)) {
 8002d20:	6938      	ldr	r0, [r7, #16]
 8002d22:	f7ff fdd8 	bl	80028d6 <LOS_ListEmpty>
 8002d26:	4603      	mov	r3, r0
 8002d28:	2b00      	cmp	r3, #0
 8002d2a:	d003      	beq.n	8002d34 <OsTaskScan+0x5c>
        LOS_SpinUnlock(&g_taskSpin);
 8002d2c:	483c      	ldr	r0, [pc, #240]	; (8002e20 <OsTaskScan+0x148>)
 8002d2e:	f7ff fe77 	bl	8002a20 <LOS_SpinUnlock>
        return;
 8002d32:	e072      	b.n	8002e1a <OsTaskScan+0x142>
    }
    sortList = LOS_DL_LIST_ENTRY(listObject->pstNext, SortLinkList, sortLinkNode);
 8002d34:	693b      	ldr	r3, [r7, #16]
 8002d36:	685b      	ldr	r3, [r3, #4]
 8002d38:	607b      	str	r3, [r7, #4]
    ROLLNUM_DEC(sortList->idxRollNum);
 8002d3a:	687b      	ldr	r3, [r7, #4]
 8002d3c:	689b      	ldr	r3, [r3, #8]
 8002d3e:	1e5a      	subs	r2, r3, #1
 8002d40:	687b      	ldr	r3, [r7, #4]
 8002d42:	609a      	str	r2, [r3, #8]

    while (ROLLNUM(sortList->idxRollNum) == 0) {
 8002d44:	e056      	b.n	8002df4 <OsTaskScan+0x11c>
        LOS_ListDelete(&sortList->sortLinkNode);
 8002d46:	687b      	ldr	r3, [r7, #4]
 8002d48:	4618      	mov	r0, r3
 8002d4a:	f7ff fdaa 	bl	80028a2 <LOS_ListDelete>
        taskCB = LOS_DL_LIST_ENTRY(sortList, LosTaskCB, sortList);
 8002d4e:	687b      	ldr	r3, [r7, #4]
 8002d50:	3b48      	subs	r3, #72	; 0x48
 8002d52:	60fb      	str	r3, [r7, #12]
        taskCB->taskStatus &= ~OS_TASK_STATUS_PEND_TIME;
 8002d54:	68fb      	ldr	r3, [r7, #12]
 8002d56:	889b      	ldrh	r3, [r3, #4]
 8002d58:	f023 0380 	bic.w	r3, r3, #128	; 0x80
 8002d5c:	b29a      	uxth	r2, r3
 8002d5e:	68fb      	ldr	r3, [r7, #12]
 8002d60:	809a      	strh	r2, [r3, #4]
        tempStatus = taskCB->taskStatus;
 8002d62:	68fb      	ldr	r3, [r7, #12]
 8002d64:	889b      	ldrh	r3, [r3, #4]
 8002d66:	807b      	strh	r3, [r7, #2]
        if (tempStatus & OS_TASK_STATUS_PEND) {
 8002d68:	887b      	ldrh	r3, [r7, #2]
 8002d6a:	f003 0308 	and.w	r3, r3, #8
 8002d6e:	2b00      	cmp	r3, #0
 8002d70:	d019      	beq.n	8002da6 <OsTaskScan+0xce>
            taskCB->taskStatus &= ~OS_TASK_STATUS_PEND;
 8002d72:	68fb      	ldr	r3, [r7, #12]
 8002d74:	889b      	ldrh	r3, [r3, #4]
 8002d76:	f023 0308 	bic.w	r3, r3, #8
 8002d7a:	b29a      	uxth	r2, r3
 8002d7c:	68fb      	ldr	r3, [r7, #12]
 8002d7e:	809a      	strh	r2, [r3, #4]
            taskCB->taskStatus |= OS_TASK_STATUS_TIMEOUT;
 8002d80:	68fb      	ldr	r3, [r7, #12]
 8002d82:	889b      	ldrh	r3, [r3, #4]
 8002d84:	f043 0340 	orr.w	r3, r3, #64	; 0x40
 8002d88:	b29a      	uxth	r2, r3
 8002d8a:	68fb      	ldr	r3, [r7, #12]
 8002d8c:	809a      	strh	r2, [r3, #4]
            LOS_ListDelete(&taskCB->pendList);
 8002d8e:	68fb      	ldr	r3, [r7, #12]
 8002d90:	3340      	adds	r3, #64	; 0x40
 8002d92:	4618      	mov	r0, r3
 8002d94:	f7ff fd85 	bl	80028a2 <LOS_ListDelete>
            taskCB->taskSem = NULL;
 8002d98:	68fb      	ldr	r3, [r7, #12]
 8002d9a:	2200      	movs	r2, #0
 8002d9c:	61da      	str	r2, [r3, #28]
            taskCB->taskMux = NULL;
 8002d9e:	68fb      	ldr	r3, [r7, #12]
 8002da0:	2200      	movs	r2, #0
 8002da2:	629a      	str	r2, [r3, #40]	; 0x28
 8002da4:	e006      	b.n	8002db4 <OsTaskScan+0xdc>
        } else {
            taskCB->taskStatus &= ~OS_TASK_STATUS_DELAY;
 8002da6:	68fb      	ldr	r3, [r7, #12]
 8002da8:	889b      	ldrh	r3, [r3, #4]
 8002daa:	f023 0320 	bic.w	r3, r3, #32
 8002dae:	b29a      	uxth	r2, r3
 8002db0:	68fb      	ldr	r3, [r7, #12]
 8002db2:	809a      	strh	r2, [r3, #4]
        }

        if (!(tempStatus & OS_TASK_STATUS_SUSPEND)) {
 8002db4:	887b      	ldrh	r3, [r7, #2]
 8002db6:	f003 0302 	and.w	r3, r3, #2
 8002dba:	2b00      	cmp	r3, #0
 8002dbc:	d111      	bne.n	8002de2 <OsTaskScan+0x10a>
            taskCB->taskStatus |= OS_TASK_STATUS_READY;
 8002dbe:	68fb      	ldr	r3, [r7, #12]
 8002dc0:	889b      	ldrh	r3, [r3, #4]
 8002dc2:	f043 0304 	orr.w	r3, r3, #4
 8002dc6:	b29a      	uxth	r2, r3
 8002dc8:	68fb      	ldr	r3, [r7, #12]
 8002dca:	809a      	strh	r2, [r3, #4]
            OsPriQueueEnqueue(&taskCB->pendList, taskCB->priority);
 8002dcc:	68fb      	ldr	r3, [r7, #12]
 8002dce:	f103 0240 	add.w	r2, r3, #64	; 0x40
 8002dd2:	68fb      	ldr	r3, [r7, #12]
 8002dd4:	88db      	ldrh	r3, [r3, #6]
 8002dd6:	4619      	mov	r1, r3
 8002dd8:	4610      	mov	r0, r2
 8002dda:	f005 fbe1 	bl	80085a0 <OsPriQueueEnqueue>
            needSchedule = TRUE;
 8002dde:	2301      	movs	r3, #1
 8002de0:	60bb      	str	r3, [r7, #8]
        }

        if (LOS_ListEmpty(listObject)) {
 8002de2:	6938      	ldr	r0, [r7, #16]
 8002de4:	f7ff fd77 	bl	80028d6 <LOS_ListEmpty>
 8002de8:	4603      	mov	r3, r0
 8002dea:	2b00      	cmp	r3, #0
 8002dec:	d109      	bne.n	8002e02 <OsTaskScan+0x12a>
            break;
        }

        sortList = LOS_DL_LIST_ENTRY(listObject->pstNext, SortLinkList, sortLinkNode);
 8002dee:	693b      	ldr	r3, [r7, #16]
 8002df0:	685b      	ldr	r3, [r3, #4]
 8002df2:	607b      	str	r3, [r7, #4]
    while (ROLLNUM(sortList->idxRollNum) == 0) {
 8002df4:	687b      	ldr	r3, [r7, #4]
 8002df6:	689b      	ldr	r3, [r3, #8]
 8002df8:	f023 4360 	bic.w	r3, r3, #3758096384	; 0xe0000000
 8002dfc:	2b00      	cmp	r3, #0
 8002dfe:	d0a2      	beq.n	8002d46 <OsTaskScan+0x6e>
 8002e00:	e000      	b.n	8002e04 <OsTaskScan+0x12c>
            break;
 8002e02:	bf00      	nop
    }

    LOS_SpinUnlock(&g_taskSpin);
 8002e04:	4806      	ldr	r0, [pc, #24]	; (8002e20 <OsTaskScan+0x148>)
 8002e06:	f7ff fe0b 	bl	8002a20 <LOS_SpinUnlock>

    if (needSchedule != FALSE) {
 8002e0a:	68bb      	ldr	r3, [r7, #8]
 8002e0c:	2b00      	cmp	r3, #0
 8002e0e:	d004      	beq.n	8002e1a <OsTaskScan+0x142>
        LOS_MpSchedule(OS_MP_CPU_ALL);
 8002e10:	2001      	movs	r0, #1
 8002e12:	f7ff fe42 	bl	8002a9a <LOS_MpSchedule>
        LOS_Schedule();
 8002e16:	f7ff fde9 	bl	80029ec <LOS_Schedule>
    }
}
 8002e1a:	3718      	adds	r7, #24
 8002e1c:	46bd      	mov	sp, r7
 8002e1e:	bd80      	pop	{r7, pc}
 8002e20:	20000764 	.word	0x20000764

08002e24 <OsTaskInit>:

LITE_OS_SEC_TEXT_INIT UINT32 OsTaskInit(VOID)
{
 8002e24:	b580      	push	{r7, lr}
 8002e26:	b084      	sub	sp, #16
 8002e28:	af00      	add	r7, sp, #0
    UINT32 index;
    UINT32 ret;
    UINT32 size;

    size = (KERNEL_TSK_LIMIT + 1) * sizeof(LosTaskCB);
 8002e2a:	f44f 632a 	mov.w	r3, #2720	; 0xaa0
 8002e2e:	60bb      	str	r3, [r7, #8]
    /*
     * This memory is resident memory and is used to save the system resources
     * of task control block and will not be freed.
     */
    g_taskCBArray = (LosTaskCB *)LOS_MemAlloc(m_aucSysMem0, size);
 8002e30:	4b3b      	ldr	r3, [pc, #236]	; (8002f20 <OsTaskInit+0xfc>)
 8002e32:	681b      	ldr	r3, [r3, #0]
 8002e34:	68b9      	ldr	r1, [r7, #8]
 8002e36:	4618      	mov	r0, r3
 8002e38:	f005 fdb6 	bl	80089a8 <LOS_MemAlloc>
 8002e3c:	4603      	mov	r3, r0
 8002e3e:	4a39      	ldr	r2, [pc, #228]	; (8002f24 <OsTaskInit+0x100>)
 8002e40:	6013      	str	r3, [r2, #0]
    if (g_taskCBArray == NULL) {
 8002e42:	4b38      	ldr	r3, [pc, #224]	; (8002f24 <OsTaskInit+0x100>)
 8002e44:	681b      	ldr	r3, [r3, #0]
 8002e46:	2b00      	cmp	r3, #0
 8002e48:	d101      	bne.n	8002e4e <OsTaskInit+0x2a>
        return LOS_ERRNO_TSK_NO_MEMORY;
 8002e4a:	4b37      	ldr	r3, [pc, #220]	; (8002f28 <OsTaskInit+0x104>)
 8002e4c:	e063      	b.n	8002f16 <OsTaskInit+0xf2>
    }
    (VOID)memset_s(g_taskCBArray, size, 0, size);
 8002e4e:	4b35      	ldr	r3, [pc, #212]	; (8002f24 <OsTaskInit+0x100>)
 8002e50:	6818      	ldr	r0, [r3, #0]
 8002e52:	68bb      	ldr	r3, [r7, #8]
 8002e54:	2200      	movs	r2, #0
 8002e56:	68b9      	ldr	r1, [r7, #8]
 8002e58:	f013 f918 	bl	801608c <memset_s>

    LOS_ListInit(&g_losFreeTask);
 8002e5c:	4833      	ldr	r0, [pc, #204]	; (8002f2c <OsTaskInit+0x108>)
 8002e5e:	f7ff fce8 	bl	8002832 <LOS_ListInit>
    LOS_ListInit(&g_taskRecycleList);
 8002e62:	4833      	ldr	r0, [pc, #204]	; (8002f30 <OsTaskInit+0x10c>)
 8002e64:	f7ff fce5 	bl	8002832 <LOS_ListInit>
    for (index = 0; index < KERNEL_TSK_LIMIT; index++) {
 8002e68:	2300      	movs	r3, #0
 8002e6a:	607b      	str	r3, [r7, #4]
 8002e6c:	e023      	b.n	8002eb6 <OsTaskInit+0x92>
        g_taskCBArray[index].taskStatus = OS_TASK_STATUS_UNUSED;
 8002e6e:	4b2d      	ldr	r3, [pc, #180]	; (8002f24 <OsTaskInit+0x100>)
 8002e70:	6819      	ldr	r1, [r3, #0]
 8002e72:	687a      	ldr	r2, [r7, #4]
 8002e74:	4613      	mov	r3, r2
 8002e76:	009b      	lsls	r3, r3, #2
 8002e78:	4413      	add	r3, r2
 8002e7a:	015b      	lsls	r3, r3, #5
 8002e7c:	440b      	add	r3, r1
 8002e7e:	2201      	movs	r2, #1
 8002e80:	809a      	strh	r2, [r3, #4]
        g_taskCBArray[index].taskId = index;
 8002e82:	4b28      	ldr	r3, [pc, #160]	; (8002f24 <OsTaskInit+0x100>)
 8002e84:	6819      	ldr	r1, [r3, #0]
 8002e86:	687a      	ldr	r2, [r7, #4]
 8002e88:	4613      	mov	r3, r2
 8002e8a:	009b      	lsls	r3, r3, #2
 8002e8c:	4413      	add	r3, r2
 8002e8e:	015b      	lsls	r3, r3, #5
 8002e90:	440b      	add	r3, r1
 8002e92:	687a      	ldr	r2, [r7, #4]
